
Project_Gliding_Chute.elf:     file format elf32-avr

Sections:
Idx Name          Size      VMA       LMA       File off  Algn
  0 .data         00000002  00800100  00003164  000031f8  2**0
                  CONTENTS, ALLOC, LOAD, DATA
  1 .text         00003164  00000000  00000000  00000094  2**1
                  CONTENTS, ALLOC, LOAD, READONLY, CODE
  2 .bss          00000101  00800102  00800102  000031fa  2**0
                  ALLOC
  3 .comment      00000030  00000000  00000000  000031fa  2**0
                  CONTENTS, READONLY
  4 .note.gnu.avr.deviceinfo 0000003c  00000000  00000000  0000322c  2**2
                  CONTENTS, READONLY
  5 .debug_aranges 00000198  00000000  00000000  00003268  2**0
                  CONTENTS, READONLY, DEBUGGING
  6 .debug_info   00002184  00000000  00000000  00003400  2**0
                  CONTENTS, READONLY, DEBUGGING
  7 .debug_abbrev 00000d08  00000000  00000000  00005584  2**0
                  CONTENTS, READONLY, DEBUGGING
  8 .debug_line   00000fe2  00000000  00000000  0000628c  2**0
                  CONTENTS, READONLY, DEBUGGING
  9 .debug_frame  0000064c  00000000  00000000  00007270  2**2
                  CONTENTS, READONLY, DEBUGGING
 10 .debug_str    0000088a  00000000  00000000  000078bc  2**0
                  CONTENTS, READONLY, DEBUGGING
 11 .debug_loc    000026cd  00000000  00000000  00008146  2**0
                  CONTENTS, READONLY, DEBUGGING
 12 .debug_ranges 00000158  00000000  00000000  0000a813  2**0
                  CONTENTS, READONLY, DEBUGGING

Disassembly of section .text:

00000000 <__vectors>:
       0:	45 c0       	rjmp	.+138    	; 0x8c <__ctors_end>
       2:	00 00       	nop
       4:	62 c0       	rjmp	.+196    	; 0xca <__bad_interrupt>
       6:	00 00       	nop
       8:	60 c0       	rjmp	.+192    	; 0xca <__bad_interrupt>
       a:	00 00       	nop
       c:	5e c0       	rjmp	.+188    	; 0xca <__bad_interrupt>
       e:	00 00       	nop
      10:	5c c0       	rjmp	.+184    	; 0xca <__bad_interrupt>
      12:	00 00       	nop
      14:	5a c0       	rjmp	.+180    	; 0xca <__bad_interrupt>
      16:	00 00       	nop
      18:	58 c0       	rjmp	.+176    	; 0xca <__bad_interrupt>
      1a:	00 00       	nop
      1c:	56 c0       	rjmp	.+172    	; 0xca <__bad_interrupt>
      1e:	00 00       	nop
      20:	54 c0       	rjmp	.+168    	; 0xca <__bad_interrupt>
      22:	00 00       	nop
      24:	52 c0       	rjmp	.+164    	; 0xca <__bad_interrupt>
      26:	00 00       	nop
      28:	50 c0       	rjmp	.+160    	; 0xca <__bad_interrupt>
      2a:	00 00       	nop
      2c:	4e c0       	rjmp	.+156    	; 0xca <__bad_interrupt>
      2e:	00 00       	nop
      30:	4c c0       	rjmp	.+152    	; 0xca <__bad_interrupt>
      32:	00 00       	nop
      34:	4a c0       	rjmp	.+148    	; 0xca <__bad_interrupt>
      36:	00 00       	nop
      38:	48 c0       	rjmp	.+144    	; 0xca <__bad_interrupt>
      3a:	00 00       	nop
      3c:	0c 94 90 11 	jmp	0x2320	; 0x2320 <__vector_15>
      40:	44 c0       	rjmp	.+136    	; 0xca <__bad_interrupt>
      42:	00 00       	nop
      44:	42 c0       	rjmp	.+132    	; 0xca <__bad_interrupt>
      46:	00 00       	nop
      48:	0c 94 9f 11 	jmp	0x233e	; 0x233e <__vector_18>
      4c:	3e c0       	rjmp	.+124    	; 0xca <__bad_interrupt>
      4e:	00 00       	nop
      50:	3c c0       	rjmp	.+120    	; 0xca <__bad_interrupt>
      52:	00 00       	nop
      54:	3a c0       	rjmp	.+116    	; 0xca <__bad_interrupt>
      56:	00 00       	nop
      58:	38 c0       	rjmp	.+112    	; 0xca <__bad_interrupt>
      5a:	00 00       	nop
      5c:	36 c0       	rjmp	.+108    	; 0xca <__bad_interrupt>
      5e:	00 00       	nop
      60:	34 c0       	rjmp	.+104    	; 0xca <__bad_interrupt>
      62:	00 00       	nop
      64:	32 c0       	rjmp	.+100    	; 0xca <__bad_interrupt>
      66:	00 00       	nop
      68:	30 c0       	rjmp	.+96     	; 0xca <__bad_interrupt>
      6a:	00 00       	nop
      6c:	2e c0       	rjmp	.+92     	; 0xca <__bad_interrupt>
      6e:	00 00       	nop
      70:	2c c0       	rjmp	.+88     	; 0xca <__bad_interrupt>
      72:	00 00       	nop
      74:	2a c0       	rjmp	.+84     	; 0xca <__bad_interrupt>
      76:	00 00       	nop
      78:	0c 94 c9 11 	jmp	0x2392	; 0x2392 <__vector_30>
      7c:	26 c0       	rjmp	.+76     	; 0xca <__bad_interrupt>
      7e:	00 00       	nop
      80:	24 c0       	rjmp	.+72     	; 0xca <__bad_interrupt>
      82:	00 00       	nop
      84:	22 c0       	rjmp	.+68     	; 0xca <__bad_interrupt>
      86:	00 00       	nop
      88:	20 c0       	rjmp	.+64     	; 0xca <__bad_interrupt>
	...

0000008c <__ctors_end>:
      8c:	11 24       	eor	r1, r1
      8e:	1f be       	out	0x3f, r1	; 63
      90:	cf ef       	ldi	r28, 0xFF	; 255
      92:	d0 e1       	ldi	r29, 0x10	; 16
      94:	de bf       	out	0x3e, r29	; 62
      96:	cd bf       	out	0x3d, r28	; 61

00000098 <__do_copy_data>:
      98:	11 e0       	ldi	r17, 0x01	; 1
      9a:	a0 e0       	ldi	r26, 0x00	; 0
      9c:	b1 e0       	ldi	r27, 0x01	; 1
      9e:	e4 e6       	ldi	r30, 0x64	; 100
      a0:	f1 e3       	ldi	r31, 0x31	; 49
      a2:	00 e0       	ldi	r16, 0x00	; 0
      a4:	0b bf       	out	0x3b, r16	; 59
      a6:	02 c0       	rjmp	.+4      	; 0xac <__do_copy_data+0x14>
      a8:	07 90       	elpm	r0, Z+
      aa:	0d 92       	st	X+, r0
      ac:	a2 30       	cpi	r26, 0x02	; 2
      ae:	b1 07       	cpc	r27, r17
      b0:	d9 f7       	brne	.-10     	; 0xa8 <__do_copy_data+0x10>

000000b2 <__do_clear_bss>:
      b2:	22 e0       	ldi	r18, 0x02	; 2
      b4:	a2 e0       	ldi	r26, 0x02	; 2
      b6:	b1 e0       	ldi	r27, 0x01	; 1
      b8:	01 c0       	rjmp	.+2      	; 0xbc <.do_clear_bss_start>

000000ba <.do_clear_bss_loop>:
      ba:	1d 92       	st	X+, r1

000000bc <.do_clear_bss_start>:
      bc:	a3 30       	cpi	r26, 0x03	; 3
      be:	b2 07       	cpc	r27, r18
      c0:	e1 f7       	brne	.-8      	; 0xba <.do_clear_bss_loop>
      c2:	0e 94 f3 11 	call	0x23e6	; 0x23e6 <main>
      c6:	0c 94 b0 18 	jmp	0x3160	; 0x3160 <_exit>

000000ca <__bad_interrupt>:
      ca:	9a cf       	rjmp	.-204    	; 0x0 <__vectors>

000000cc <Quaternion_rotate>:

#define beta 0.8
#define deltat 1/64

void Quaternion_rotate(float* q, float v[3], float output[3])
{
      cc:	2f 92       	push	r2
      ce:	3f 92       	push	r3
      d0:	4f 92       	push	r4
      d2:	5f 92       	push	r5
      d4:	6f 92       	push	r6
      d6:	7f 92       	push	r7
      d8:	8f 92       	push	r8
      da:	9f 92       	push	r9
      dc:	af 92       	push	r10
      de:	bf 92       	push	r11
      e0:	cf 92       	push	r12
      e2:	df 92       	push	r13
      e4:	ef 92       	push	r14
      e6:	ff 92       	push	r15
      e8:	0f 93       	push	r16
      ea:	1f 93       	push	r17
      ec:	cf 93       	push	r28
      ee:	df 93       	push	r29
      f0:	cd b7       	in	r28, 0x3d	; 61
      f2:	de b7       	in	r29, 0x3e	; 62
      f4:	e4 97       	sbiw	r28, 0x34	; 52
      f6:	0f b6       	in	r0, 0x3f	; 63
      f8:	f8 94       	cli
      fa:	de bf       	out	0x3e, r29	; 62
      fc:	0f be       	out	0x3f, r0	; 63
      fe:	cd bf       	out	0x3d, r28	; 61
     100:	9e 83       	std	Y+6, r25	; 0x06
     102:	8d 83       	std	Y+5, r24	; 0x05
     104:	8b 01       	movw	r16, r22
     106:	1a 01       	movw	r2, r20
	float result[3];

	float ww = q[0] * q[0];
     108:	dc 01       	movw	r26, r24
     10a:	4d 90       	ld	r4, X+
     10c:	5d 90       	ld	r5, X+
     10e:	6d 90       	ld	r6, X+
     110:	7c 90       	ld	r7, X
     112:	a3 01       	movw	r20, r6
     114:	92 01       	movw	r18, r4
     116:	c3 01       	movw	r24, r6
     118:	b2 01       	movw	r22, r4
     11a:	0e 94 7d 17 	call	0x2efa	; 0x2efa <__mulsf3>
     11e:	6d 8b       	std	Y+21, r22	; 0x15
     120:	7e 8b       	std	Y+22, r23	; 0x16
     122:	8f 8b       	std	Y+23, r24	; 0x17
     124:	98 8f       	std	Y+24, r25	; 0x18
	float xx = q[1] * q[1];
     126:	ed 81       	ldd	r30, Y+5	; 0x05
     128:	fe 81       	ldd	r31, Y+6	; 0x06
     12a:	84 80       	ldd	r8, Z+4	; 0x04
     12c:	95 80       	ldd	r9, Z+5	; 0x05
     12e:	a6 80       	ldd	r10, Z+6	; 0x06
     130:	b7 80       	ldd	r11, Z+7	; 0x07
     132:	a5 01       	movw	r20, r10
     134:	94 01       	movw	r18, r8
     136:	c5 01       	movw	r24, r10
     138:	b4 01       	movw	r22, r8
     13a:	0e 94 7d 17 	call	0x2efa	; 0x2efa <__mulsf3>
     13e:	69 8f       	std	Y+25, r22	; 0x19
     140:	7a 8f       	std	Y+26, r23	; 0x1a
     142:	8b 8f       	std	Y+27, r24	; 0x1b
     144:	9c 8f       	std	Y+28, r25	; 0x1c
	float yy = q[2] * q[2];
     146:	ad 81       	ldd	r26, Y+5	; 0x05
     148:	be 81       	ldd	r27, Y+6	; 0x06
     14a:	18 96       	adiw	r26, 0x08	; 8
     14c:	2d 91       	ld	r18, X+
     14e:	3d 91       	ld	r19, X+
     150:	4d 91       	ld	r20, X+
     152:	5c 91       	ld	r21, X
     154:	1b 97       	sbiw	r26, 0x0b	; 11
     156:	29 83       	std	Y+1, r18	; 0x01
     158:	3a 83       	std	Y+2, r19	; 0x02
     15a:	4b 83       	std	Y+3, r20	; 0x03
     15c:	5c 83       	std	Y+4, r21	; 0x04
     15e:	ca 01       	movw	r24, r20
     160:	b9 01       	movw	r22, r18
     162:	0e 94 7d 17 	call	0x2efa	; 0x2efa <__mulsf3>
     166:	6d 8f       	std	Y+29, r22	; 0x1d
     168:	7e 8f       	std	Y+30, r23	; 0x1e
     16a:	8f 8f       	std	Y+31, r24	; 0x1f
     16c:	98 a3       	std	Y+32, r25	; 0x20
	float zz = q[3] * q[3];
     16e:	ed 81       	ldd	r30, Y+5	; 0x05
     170:	fe 81       	ldd	r31, Y+6	; 0x06
     172:	c4 84       	ldd	r12, Z+12	; 0x0c
     174:	d5 84       	ldd	r13, Z+13	; 0x0d
     176:	e6 84       	ldd	r14, Z+14	; 0x0e
     178:	f7 84       	ldd	r15, Z+15	; 0x0f
     17a:	a7 01       	movw	r20, r14
     17c:	96 01       	movw	r18, r12
     17e:	c7 01       	movw	r24, r14
     180:	b6 01       	movw	r22, r12
     182:	0e 94 7d 17 	call	0x2efa	; 0x2efa <__mulsf3>
     186:	69 8b       	std	Y+17, r22	; 0x11
     188:	7a 8b       	std	Y+18, r23	; 0x12
     18a:	8b 8b       	std	Y+19, r24	; 0x13
     18c:	9c 8b       	std	Y+20, r25	; 0x14
	float wx = q[0] * q[1];
     18e:	a5 01       	movw	r20, r10
     190:	94 01       	movw	r18, r8
     192:	c3 01       	movw	r24, r6
     194:	b2 01       	movw	r22, r4
     196:	0e 94 7d 17 	call	0x2efa	; 0x2efa <__mulsf3>
     19a:	6d 87       	std	Y+13, r22	; 0x0d
     19c:	7e 87       	std	Y+14, r23	; 0x0e
     19e:	8f 87       	std	Y+15, r24	; 0x0f
     1a0:	98 8b       	std	Y+16, r25	; 0x10
	float wy = q[0] * q[2];
     1a2:	29 81       	ldd	r18, Y+1	; 0x01
     1a4:	3a 81       	ldd	r19, Y+2	; 0x02
     1a6:	4b 81       	ldd	r20, Y+3	; 0x03
     1a8:	5c 81       	ldd	r21, Y+4	; 0x04
     1aa:	c3 01       	movw	r24, r6
     1ac:	b2 01       	movw	r22, r4
     1ae:	0e 94 7d 17 	call	0x2efa	; 0x2efa <__mulsf3>
     1b2:	6d 83       	std	Y+5, r22	; 0x05
     1b4:	7e 83       	std	Y+6, r23	; 0x06
     1b6:	8f 83       	std	Y+7, r24	; 0x07
     1b8:	98 87       	std	Y+8, r25	; 0x08
	float wz = q[0] * q[3];
     1ba:	a7 01       	movw	r20, r14
     1bc:	96 01       	movw	r18, r12
     1be:	c3 01       	movw	r24, r6
     1c0:	b2 01       	movw	r22, r4
     1c2:	0e 94 7d 17 	call	0x2efa	; 0x2efa <__mulsf3>
     1c6:	2b 01       	movw	r4, r22
     1c8:	3c 01       	movw	r6, r24
	float xy = q[1] * q[2];
     1ca:	29 81       	ldd	r18, Y+1	; 0x01
     1cc:	3a 81       	ldd	r19, Y+2	; 0x02
     1ce:	4b 81       	ldd	r20, Y+3	; 0x03
     1d0:	5c 81       	ldd	r21, Y+4	; 0x04
     1d2:	c5 01       	movw	r24, r10
     1d4:	b4 01       	movw	r22, r8
     1d6:	0e 94 7d 17 	call	0x2efa	; 0x2efa <__mulsf3>
     1da:	69 87       	std	Y+9, r22	; 0x09
     1dc:	7a 87       	std	Y+10, r23	; 0x0a
     1de:	8b 87       	std	Y+11, r24	; 0x0b
     1e0:	9c 87       	std	Y+12, r25	; 0x0c
	float xz = q[1] * q[3];
     1e2:	a7 01       	movw	r20, r14
     1e4:	96 01       	movw	r18, r12
     1e6:	c5 01       	movw	r24, r10
     1e8:	b4 01       	movw	r22, r8
     1ea:	0e 94 7d 17 	call	0x2efa	; 0x2efa <__mulsf3>
     1ee:	4b 01       	movw	r8, r22
     1f0:	5c 01       	movw	r10, r24
	float yz = q[2] * q[3];
     1f2:	a7 01       	movw	r20, r14
     1f4:	96 01       	movw	r18, r12
     1f6:	69 81       	ldd	r22, Y+1	; 0x01
     1f8:	7a 81       	ldd	r23, Y+2	; 0x02
     1fa:	8b 81       	ldd	r24, Y+3	; 0x03
     1fc:	9c 81       	ldd	r25, Y+4	; 0x04
     1fe:	0e 94 7d 17 	call	0x2efa	; 0x2efa <__mulsf3>
     202:	69 a3       	std	Y+33, r22	; 0x21
     204:	7a a3       	std	Y+34, r23	; 0x22
     206:	8b a3       	std	Y+35, r24	; 0x23
     208:	9c a3       	std	Y+36, r25	; 0x24
	
	result[0] = ww*v[0] + 2*wy*v[2] - 2*wz*v[1] +
     20a:	d8 01       	movw	r26, r16
     20c:	2d 91       	ld	r18, X+
     20e:	3d 91       	ld	r19, X+
     210:	4d 91       	ld	r20, X+
     212:	5c 91       	ld	r21, X
     214:	29 83       	std	Y+1, r18	; 0x01
     216:	3a 83       	std	Y+2, r19	; 0x02
     218:	4b 83       	std	Y+3, r20	; 0x03
     21a:	5c 83       	std	Y+4, r21	; 0x04
     21c:	6d 89       	ldd	r22, Y+21	; 0x15
     21e:	7e 89       	ldd	r23, Y+22	; 0x16
     220:	8f 89       	ldd	r24, Y+23	; 0x17
     222:	98 8d       	ldd	r25, Y+24	; 0x18
     224:	0e 94 7d 17 	call	0x2efa	; 0x2efa <__mulsf3>
     228:	6b 01       	movw	r12, r22
     22a:	7c 01       	movw	r14, r24
     22c:	2d 81       	ldd	r18, Y+5	; 0x05
     22e:	3e 81       	ldd	r19, Y+6	; 0x06
     230:	4f 81       	ldd	r20, Y+7	; 0x07
     232:	58 85       	ldd	r21, Y+8	; 0x08
     234:	ca 01       	movw	r24, r20
     236:	b9 01       	movw	r22, r18
     238:	0e 94 ee 15 	call	0x2bdc	; 0x2bdc <__addsf3>
     23c:	6d a3       	std	Y+37, r22	; 0x25
     23e:	7e a3       	std	Y+38, r23	; 0x26
     240:	8f a3       	std	Y+39, r24	; 0x27
     242:	98 a7       	std	Y+40, r25	; 0x28
     244:	d8 01       	movw	r26, r16
     246:	18 96       	adiw	r26, 0x08	; 8
     248:	2d 91       	ld	r18, X+
     24a:	3d 91       	ld	r19, X+
     24c:	4d 91       	ld	r20, X+
     24e:	5c 91       	ld	r21, X
     250:	1b 97       	sbiw	r26, 0x0b	; 11
     252:	2d 83       	std	Y+5, r18	; 0x05
     254:	3e 83       	std	Y+6, r19	; 0x06
     256:	4f 83       	std	Y+7, r20	; 0x07
     258:	58 87       	std	Y+8, r21	; 0x08
     25a:	0e 94 7d 17 	call	0x2efa	; 0x2efa <__mulsf3>
     25e:	9b 01       	movw	r18, r22
     260:	ac 01       	movw	r20, r24
     262:	c7 01       	movw	r24, r14
     264:	b6 01       	movw	r22, r12
     266:	0e 94 ee 15 	call	0x2bdc	; 0x2bdc <__addsf3>
     26a:	6b 01       	movw	r12, r22
     26c:	7c 01       	movw	r14, r24
     26e:	a3 01       	movw	r20, r6
     270:	92 01       	movw	r18, r4
     272:	c3 01       	movw	r24, r6
     274:	b2 01       	movw	r22, r4
     276:	0e 94 ee 15 	call	0x2bdc	; 0x2bdc <__addsf3>
     27a:	69 a7       	std	Y+41, r22	; 0x29
     27c:	7a a7       	std	Y+42, r23	; 0x2a
     27e:	8b a7       	std	Y+43, r24	; 0x2b
     280:	9c a7       	std	Y+44, r25	; 0x2c
     282:	f8 01       	movw	r30, r16
     284:	44 80       	ldd	r4, Z+4	; 0x04
     286:	55 80       	ldd	r5, Z+5	; 0x05
     288:	66 80       	ldd	r6, Z+6	; 0x06
     28a:	77 80       	ldd	r7, Z+7	; 0x07
     28c:	a3 01       	movw	r20, r6
     28e:	92 01       	movw	r18, r4
     290:	0e 94 7d 17 	call	0x2efa	; 0x2efa <__mulsf3>
     294:	9b 01       	movw	r18, r22
     296:	ac 01       	movw	r20, r24
     298:	c7 01       	movw	r24, r14
     29a:	b6 01       	movw	r22, r12
     29c:	0e 94 ed 15 	call	0x2bda	; 0x2bda <__subsf3>
     2a0:	6b 01       	movw	r12, r22
     2a2:	7c 01       	movw	r14, r24
	xx*v[0] + 2*xy*v[1] + 2*xz*v[2] -
     2a4:	29 81       	ldd	r18, Y+1	; 0x01
     2a6:	3a 81       	ldd	r19, Y+2	; 0x02
     2a8:	4b 81       	ldd	r20, Y+3	; 0x03
     2aa:	5c 81       	ldd	r21, Y+4	; 0x04
     2ac:	69 8d       	ldd	r22, Y+25	; 0x19
     2ae:	7a 8d       	ldd	r23, Y+26	; 0x1a
     2b0:	8b 8d       	ldd	r24, Y+27	; 0x1b
     2b2:	9c 8d       	ldd	r25, Y+28	; 0x1c
     2b4:	0e 94 7d 17 	call	0x2efa	; 0x2efa <__mulsf3>
     2b8:	9b 01       	movw	r18, r22
     2ba:	ac 01       	movw	r20, r24
	float wz = q[0] * q[3];
	float xy = q[1] * q[2];
	float xz = q[1] * q[3];
	float yz = q[2] * q[3];
	
	result[0] = ww*v[0] + 2*wy*v[2] - 2*wz*v[1] +
     2bc:	c7 01       	movw	r24, r14
     2be:	b6 01       	movw	r22, r12
     2c0:	0e 94 ee 15 	call	0x2bdc	; 0x2bdc <__addsf3>
     2c4:	6b 01       	movw	r12, r22
     2c6:	7c 01       	movw	r14, r24
	xx*v[0] + 2*xy*v[1] + 2*xz*v[2] -
     2c8:	29 85       	ldd	r18, Y+9	; 0x09
     2ca:	3a 85       	ldd	r19, Y+10	; 0x0a
     2cc:	4b 85       	ldd	r20, Y+11	; 0x0b
     2ce:	5c 85       	ldd	r21, Y+12	; 0x0c
     2d0:	ca 01       	movw	r24, r20
     2d2:	b9 01       	movw	r22, r18
     2d4:	0e 94 ee 15 	call	0x2bdc	; 0x2bdc <__addsf3>
     2d8:	69 87       	std	Y+9, r22	; 0x09
     2da:	7a 87       	std	Y+10, r23	; 0x0a
     2dc:	8b 87       	std	Y+11, r24	; 0x0b
     2de:	9c 87       	std	Y+12, r25	; 0x0c
     2e0:	9b 01       	movw	r18, r22
     2e2:	ac 01       	movw	r20, r24
     2e4:	c3 01       	movw	r24, r6
     2e6:	b2 01       	movw	r22, r4
     2e8:	0e 94 7d 17 	call	0x2efa	; 0x2efa <__mulsf3>
     2ec:	9b 01       	movw	r18, r22
     2ee:	ac 01       	movw	r20, r24
     2f0:	c7 01       	movw	r24, r14
     2f2:	b6 01       	movw	r22, r12
     2f4:	0e 94 ee 15 	call	0x2bdc	; 0x2bdc <__addsf3>
     2f8:	6b 01       	movw	r12, r22
     2fa:	7c 01       	movw	r14, r24
     2fc:	a5 01       	movw	r20, r10
     2fe:	94 01       	movw	r18, r8
     300:	c5 01       	movw	r24, r10
     302:	b4 01       	movw	r22, r8
     304:	0e 94 ee 15 	call	0x2bdc	; 0x2bdc <__addsf3>
     308:	6d a7       	std	Y+45, r22	; 0x2d
     30a:	7e a7       	std	Y+46, r23	; 0x2e
     30c:	8f a7       	std	Y+47, r24	; 0x2f
     30e:	98 ab       	std	Y+48, r25	; 0x30
     310:	9b 01       	movw	r18, r22
     312:	ac 01       	movw	r20, r24
     314:	6d 81       	ldd	r22, Y+5	; 0x05
     316:	7e 81       	ldd	r23, Y+6	; 0x06
     318:	8f 81       	ldd	r24, Y+7	; 0x07
     31a:	98 85       	ldd	r25, Y+8	; 0x08
     31c:	0e 94 7d 17 	call	0x2efa	; 0x2efa <__mulsf3>
     320:	9b 01       	movw	r18, r22
     322:	ac 01       	movw	r20, r24
     324:	c7 01       	movw	r24, r14
     326:	b6 01       	movw	r22, r12
     328:	0e 94 ee 15 	call	0x2bdc	; 0x2bdc <__addsf3>
     32c:	6b 01       	movw	r12, r22
     32e:	7c 01       	movw	r14, r24
	zz*v[0] - yy*v[0];
     330:	29 81       	ldd	r18, Y+1	; 0x01
     332:	3a 81       	ldd	r19, Y+2	; 0x02
     334:	4b 81       	ldd	r20, Y+3	; 0x03
     336:	5c 81       	ldd	r21, Y+4	; 0x04
     338:	69 89       	ldd	r22, Y+17	; 0x11
     33a:	7a 89       	ldd	r23, Y+18	; 0x12
     33c:	8b 89       	ldd	r24, Y+19	; 0x13
     33e:	9c 89       	ldd	r25, Y+20	; 0x14
     340:	0e 94 7d 17 	call	0x2efa	; 0x2efa <__mulsf3>
     344:	9b 01       	movw	r18, r22
     346:	ac 01       	movw	r20, r24
	float xy = q[1] * q[2];
	float xz = q[1] * q[3];
	float yz = q[2] * q[3];
	
	result[0] = ww*v[0] + 2*wy*v[2] - 2*wz*v[1] +
	xx*v[0] + 2*xy*v[1] + 2*xz*v[2] -
     348:	c7 01       	movw	r24, r14
     34a:	b6 01       	movw	r22, r12
     34c:	0e 94 ed 15 	call	0x2bda	; 0x2bda <__subsf3>
     350:	6b 01       	movw	r12, r22
     352:	7c 01       	movw	r14, r24
	zz*v[0] - yy*v[0];
     354:	29 81       	ldd	r18, Y+1	; 0x01
     356:	3a 81       	ldd	r19, Y+2	; 0x02
     358:	4b 81       	ldd	r20, Y+3	; 0x03
     35a:	5c 81       	ldd	r21, Y+4	; 0x04
     35c:	6d 8d       	ldd	r22, Y+29	; 0x1d
     35e:	7e 8d       	ldd	r23, Y+30	; 0x1e
     360:	8f 8d       	ldd	r24, Y+31	; 0x1f
     362:	98 a1       	ldd	r25, Y+32	; 0x20
     364:	0e 94 7d 17 	call	0x2efa	; 0x2efa <__mulsf3>
     368:	9b 01       	movw	r18, r22
     36a:	ac 01       	movw	r20, r24
     36c:	c7 01       	movw	r24, r14
     36e:	b6 01       	movw	r22, r12
     370:	0e 94 ed 15 	call	0x2bda	; 0x2bda <__subsf3>
     374:	69 ab       	std	Y+49, r22	; 0x31
     376:	7a ab       	std	Y+50, r23	; 0x32
     378:	8b ab       	std	Y+51, r24	; 0x33
     37a:	9c ab       	std	Y+52, r25	; 0x34
	result[1] = 2*xy*v[0] + yy*v[1] + 2*yz*v[2] +
     37c:	29 85       	ldd	r18, Y+9	; 0x09
     37e:	3a 85       	ldd	r19, Y+10	; 0x0a
     380:	4b 85       	ldd	r20, Y+11	; 0x0b
     382:	5c 85       	ldd	r21, Y+12	; 0x0c
     384:	69 81       	ldd	r22, Y+1	; 0x01
     386:	7a 81       	ldd	r23, Y+2	; 0x02
     388:	8b 81       	ldd	r24, Y+3	; 0x03
     38a:	9c 81       	ldd	r25, Y+4	; 0x04
     38c:	0e 94 7d 17 	call	0x2efa	; 0x2efa <__mulsf3>
     390:	6b 01       	movw	r12, r22
     392:	7c 01       	movw	r14, r24
     394:	a3 01       	movw	r20, r6
     396:	92 01       	movw	r18, r4
     398:	6d 8d       	ldd	r22, Y+29	; 0x1d
     39a:	7e 8d       	ldd	r23, Y+30	; 0x1e
     39c:	8f 8d       	ldd	r24, Y+31	; 0x1f
     39e:	98 a1       	ldd	r25, Y+32	; 0x20
     3a0:	0e 94 7d 17 	call	0x2efa	; 0x2efa <__mulsf3>
     3a4:	9b 01       	movw	r18, r22
     3a6:	ac 01       	movw	r20, r24
     3a8:	c7 01       	movw	r24, r14
     3aa:	b6 01       	movw	r22, r12
     3ac:	0e 94 ee 15 	call	0x2bdc	; 0x2bdc <__addsf3>
     3b0:	6b 01       	movw	r12, r22
     3b2:	7c 01       	movw	r14, r24
     3b4:	29 a1       	ldd	r18, Y+33	; 0x21
     3b6:	3a a1       	ldd	r19, Y+34	; 0x22
     3b8:	4b a1       	ldd	r20, Y+35	; 0x23
     3ba:	5c a1       	ldd	r21, Y+36	; 0x24
     3bc:	ca 01       	movw	r24, r20
     3be:	b9 01       	movw	r22, r18
     3c0:	0e 94 ee 15 	call	0x2bdc	; 0x2bdc <__addsf3>
     3c4:	69 87       	std	Y+9, r22	; 0x09
     3c6:	7a 87       	std	Y+10, r23	; 0x0a
     3c8:	8b 87       	std	Y+11, r24	; 0x0b
     3ca:	9c 87       	std	Y+12, r25	; 0x0c
     3cc:	9b 01       	movw	r18, r22
     3ce:	ac 01       	movw	r20, r24
     3d0:	6d 81       	ldd	r22, Y+5	; 0x05
     3d2:	7e 81       	ldd	r23, Y+6	; 0x06
     3d4:	8f 81       	ldd	r24, Y+7	; 0x07
     3d6:	98 85       	ldd	r25, Y+8	; 0x08
     3d8:	0e 94 7d 17 	call	0x2efa	; 0x2efa <__mulsf3>
     3dc:	9b 01       	movw	r18, r22
     3de:	ac 01       	movw	r20, r24
     3e0:	c7 01       	movw	r24, r14
     3e2:	b6 01       	movw	r22, r12
     3e4:	0e 94 ee 15 	call	0x2bdc	; 0x2bdc <__addsf3>
     3e8:	6b 01       	movw	r12, r22
     3ea:	7c 01       	movw	r14, r24
	2*wz*v[0] - zz*v[1] + ww*v[1] -
     3ec:	29 a5       	ldd	r18, Y+41	; 0x29
     3ee:	3a a5       	ldd	r19, Y+42	; 0x2a
     3f0:	4b a5       	ldd	r20, Y+43	; 0x2b
     3f2:	5c a5       	ldd	r21, Y+44	; 0x2c
     3f4:	69 81       	ldd	r22, Y+1	; 0x01
     3f6:	7a 81       	ldd	r23, Y+2	; 0x02
     3f8:	8b 81       	ldd	r24, Y+3	; 0x03
     3fa:	9c 81       	ldd	r25, Y+4	; 0x04
     3fc:	0e 94 7d 17 	call	0x2efa	; 0x2efa <__mulsf3>
     400:	9b 01       	movw	r18, r22
     402:	ac 01       	movw	r20, r24
	float yz = q[2] * q[3];
	
	result[0] = ww*v[0] + 2*wy*v[2] - 2*wz*v[1] +
	xx*v[0] + 2*xy*v[1] + 2*xz*v[2] -
	zz*v[0] - yy*v[0];
	result[1] = 2*xy*v[0] + yy*v[1] + 2*yz*v[2] +
     404:	c7 01       	movw	r24, r14
     406:	b6 01       	movw	r22, r12
     408:	0e 94 ee 15 	call	0x2bdc	; 0x2bdc <__addsf3>
     40c:	6b 01       	movw	r12, r22
     40e:	7c 01       	movw	r14, r24
	2*wz*v[0] - zz*v[1] + ww*v[1] -
     410:	a3 01       	movw	r20, r6
     412:	92 01       	movw	r18, r4
     414:	69 89       	ldd	r22, Y+17	; 0x11
     416:	7a 89       	ldd	r23, Y+18	; 0x12
     418:	8b 89       	ldd	r24, Y+19	; 0x13
     41a:	9c 89       	ldd	r25, Y+20	; 0x14
     41c:	0e 94 7d 17 	call	0x2efa	; 0x2efa <__mulsf3>
     420:	9b 01       	movw	r18, r22
     422:	ac 01       	movw	r20, r24
     424:	c7 01       	movw	r24, r14
     426:	b6 01       	movw	r22, r12
     428:	0e 94 ed 15 	call	0x2bda	; 0x2bda <__subsf3>
     42c:	6b 01       	movw	r12, r22
     42e:	7c 01       	movw	r14, r24
     430:	a3 01       	movw	r20, r6
     432:	92 01       	movw	r18, r4
     434:	6d 89       	ldd	r22, Y+21	; 0x15
     436:	7e 89       	ldd	r23, Y+22	; 0x16
     438:	8f 89       	ldd	r24, Y+23	; 0x17
     43a:	98 8d       	ldd	r25, Y+24	; 0x18
     43c:	0e 94 7d 17 	call	0x2efa	; 0x2efa <__mulsf3>
     440:	9b 01       	movw	r18, r22
     442:	ac 01       	movw	r20, r24
     444:	c7 01       	movw	r24, r14
     446:	b6 01       	movw	r22, r12
     448:	0e 94 ee 15 	call	0x2bdc	; 0x2bdc <__addsf3>
     44c:	4b 01       	movw	r8, r22
     44e:	5c 01       	movw	r10, r24
	2*wx*v[2] - xx*v[1];
     450:	2d 85       	ldd	r18, Y+13	; 0x0d
     452:	3e 85       	ldd	r19, Y+14	; 0x0e
     454:	4f 85       	ldd	r20, Y+15	; 0x0f
     456:	58 89       	ldd	r21, Y+16	; 0x10
     458:	ca 01       	movw	r24, r20
     45a:	b9 01       	movw	r22, r18
     45c:	0e 94 ee 15 	call	0x2bdc	; 0x2bdc <__addsf3>
     460:	6b 01       	movw	r12, r22
     462:	7c 01       	movw	r14, r24
     464:	9b 01       	movw	r18, r22
     466:	ac 01       	movw	r20, r24
     468:	6d 81       	ldd	r22, Y+5	; 0x05
     46a:	7e 81       	ldd	r23, Y+6	; 0x06
     46c:	8f 81       	ldd	r24, Y+7	; 0x07
     46e:	98 85       	ldd	r25, Y+8	; 0x08
     470:	0e 94 7d 17 	call	0x2efa	; 0x2efa <__mulsf3>
     474:	9b 01       	movw	r18, r22
     476:	ac 01       	movw	r20, r24
	
	result[0] = ww*v[0] + 2*wy*v[2] - 2*wz*v[1] +
	xx*v[0] + 2*xy*v[1] + 2*xz*v[2] -
	zz*v[0] - yy*v[0];
	result[1] = 2*xy*v[0] + yy*v[1] + 2*yz*v[2] +
	2*wz*v[0] - zz*v[1] + ww*v[1] -
     478:	c5 01       	movw	r24, r10
     47a:	b4 01       	movw	r22, r8
     47c:	0e 94 ed 15 	call	0x2bda	; 0x2bda <__subsf3>
     480:	4b 01       	movw	r8, r22
     482:	5c 01       	movw	r10, r24
	2*wx*v[2] - xx*v[1];
     484:	a3 01       	movw	r20, r6
     486:	92 01       	movw	r18, r4
     488:	69 8d       	ldd	r22, Y+25	; 0x19
     48a:	7a 8d       	ldd	r23, Y+26	; 0x1a
     48c:	8b 8d       	ldd	r24, Y+27	; 0x1b
     48e:	9c 8d       	ldd	r25, Y+28	; 0x1c
     490:	0e 94 7d 17 	call	0x2efa	; 0x2efa <__mulsf3>
     494:	9b 01       	movw	r18, r22
     496:	ac 01       	movw	r20, r24
     498:	c5 01       	movw	r24, r10
     49a:	b4 01       	movw	r22, r8
     49c:	0e 94 ed 15 	call	0x2bda	; 0x2bda <__subsf3>
     4a0:	4b 01       	movw	r8, r22
     4a2:	5c 01       	movw	r10, r24
	result[2] = 2*xz*v[0] + 2*yz*v[1] + zz*v[2] -
     4a4:	2d a5       	ldd	r18, Y+45	; 0x2d
     4a6:	3e a5       	ldd	r19, Y+46	; 0x2e
     4a8:	4f a5       	ldd	r20, Y+47	; 0x2f
     4aa:	58 a9       	ldd	r21, Y+48	; 0x30
     4ac:	69 81       	ldd	r22, Y+1	; 0x01
     4ae:	7a 81       	ldd	r23, Y+2	; 0x02
     4b0:	8b 81       	ldd	r24, Y+3	; 0x03
     4b2:	9c 81       	ldd	r25, Y+4	; 0x04
     4b4:	0e 94 7d 17 	call	0x2efa	; 0x2efa <__mulsf3>
     4b8:	6d 87       	std	Y+13, r22	; 0x0d
     4ba:	7e 87       	std	Y+14, r23	; 0x0e
     4bc:	8f 87       	std	Y+15, r24	; 0x0f
     4be:	98 8b       	std	Y+16, r25	; 0x10
     4c0:	29 85       	ldd	r18, Y+9	; 0x09
     4c2:	3a 85       	ldd	r19, Y+10	; 0x0a
     4c4:	4b 85       	ldd	r20, Y+11	; 0x0b
     4c6:	5c 85       	ldd	r21, Y+12	; 0x0c
     4c8:	c3 01       	movw	r24, r6
     4ca:	b2 01       	movw	r22, r4
     4cc:	0e 94 7d 17 	call	0x2efa	; 0x2efa <__mulsf3>
     4d0:	9b 01       	movw	r18, r22
     4d2:	ac 01       	movw	r20, r24
     4d4:	6d 85       	ldd	r22, Y+13	; 0x0d
     4d6:	7e 85       	ldd	r23, Y+14	; 0x0e
     4d8:	8f 85       	ldd	r24, Y+15	; 0x0f
     4da:	98 89       	ldd	r25, Y+16	; 0x10
     4dc:	0e 94 ee 15 	call	0x2bdc	; 0x2bdc <__addsf3>
     4e0:	6d 87       	std	Y+13, r22	; 0x0d
     4e2:	7e 87       	std	Y+14, r23	; 0x0e
     4e4:	8f 87       	std	Y+15, r24	; 0x0f
     4e6:	98 8b       	std	Y+16, r25	; 0x10
     4e8:	2d 81       	ldd	r18, Y+5	; 0x05
     4ea:	3e 81       	ldd	r19, Y+6	; 0x06
     4ec:	4f 81       	ldd	r20, Y+7	; 0x07
     4ee:	58 85       	ldd	r21, Y+8	; 0x08
     4f0:	69 89       	ldd	r22, Y+17	; 0x11
     4f2:	7a 89       	ldd	r23, Y+18	; 0x12
     4f4:	8b 89       	ldd	r24, Y+19	; 0x13
     4f6:	9c 89       	ldd	r25, Y+20	; 0x14
     4f8:	0e 94 7d 17 	call	0x2efa	; 0x2efa <__mulsf3>
     4fc:	9b 01       	movw	r18, r22
     4fe:	ac 01       	movw	r20, r24
     500:	6d 85       	ldd	r22, Y+13	; 0x0d
     502:	7e 85       	ldd	r23, Y+14	; 0x0e
     504:	8f 85       	ldd	r24, Y+15	; 0x0f
     506:	98 89       	ldd	r25, Y+16	; 0x10
     508:	0e 94 ee 15 	call	0x2bdc	; 0x2bdc <__addsf3>
     50c:	69 8b       	std	Y+17, r22	; 0x11
     50e:	7a 8b       	std	Y+18, r23	; 0x12
     510:	8b 8b       	std	Y+19, r24	; 0x13
     512:	9c 8b       	std	Y+20, r25	; 0x14
	2*wy*v[0] - yy*v[2] + 2*wx*v[1] -
     514:	2d a1       	ldd	r18, Y+37	; 0x25
     516:	3e a1       	ldd	r19, Y+38	; 0x26
     518:	4f a1       	ldd	r20, Y+39	; 0x27
     51a:	58 a5       	ldd	r21, Y+40	; 0x28
     51c:	69 81       	ldd	r22, Y+1	; 0x01
     51e:	7a 81       	ldd	r23, Y+2	; 0x02
     520:	8b 81       	ldd	r24, Y+3	; 0x03
     522:	9c 81       	ldd	r25, Y+4	; 0x04
     524:	0e 94 7d 17 	call	0x2efa	; 0x2efa <__mulsf3>
     528:	9b 01       	movw	r18, r22
     52a:	ac 01       	movw	r20, r24
	xx*v[0] + 2*xy*v[1] + 2*xz*v[2] -
	zz*v[0] - yy*v[0];
	result[1] = 2*xy*v[0] + yy*v[1] + 2*yz*v[2] +
	2*wz*v[0] - zz*v[1] + ww*v[1] -
	2*wx*v[2] - xx*v[1];
	result[2] = 2*xz*v[0] + 2*yz*v[1] + zz*v[2] -
     52c:	69 89       	ldd	r22, Y+17	; 0x11
     52e:	7a 89       	ldd	r23, Y+18	; 0x12
     530:	8b 89       	ldd	r24, Y+19	; 0x13
     532:	9c 89       	ldd	r25, Y+20	; 0x14
     534:	0e 94 ed 15 	call	0x2bda	; 0x2bda <__subsf3>
     538:	69 83       	std	Y+1, r22	; 0x01
     53a:	7a 83       	std	Y+2, r23	; 0x02
     53c:	8b 83       	std	Y+3, r24	; 0x03
     53e:	9c 83       	std	Y+4, r25	; 0x04
	2*wy*v[0] - yy*v[2] + 2*wx*v[1] -
     540:	2d 81       	ldd	r18, Y+5	; 0x05
     542:	3e 81       	ldd	r19, Y+6	; 0x06
     544:	4f 81       	ldd	r20, Y+7	; 0x07
     546:	58 85       	ldd	r21, Y+8	; 0x08
     548:	6d 8d       	ldd	r22, Y+29	; 0x1d
     54a:	7e 8d       	ldd	r23, Y+30	; 0x1e
     54c:	8f 8d       	ldd	r24, Y+31	; 0x1f
     54e:	98 a1       	ldd	r25, Y+32	; 0x20
     550:	0e 94 7d 17 	call	0x2efa	; 0x2efa <__mulsf3>
     554:	9b 01       	movw	r18, r22
     556:	ac 01       	movw	r20, r24
     558:	69 81       	ldd	r22, Y+1	; 0x01
     55a:	7a 81       	ldd	r23, Y+2	; 0x02
     55c:	8b 81       	ldd	r24, Y+3	; 0x03
     55e:	9c 81       	ldd	r25, Y+4	; 0x04
     560:	0e 94 ed 15 	call	0x2bda	; 0x2bda <__subsf3>
     564:	69 83       	std	Y+1, r22	; 0x01
     566:	7a 83       	std	Y+2, r23	; 0x02
     568:	8b 83       	std	Y+3, r24	; 0x03
     56a:	9c 83       	std	Y+4, r25	; 0x04
     56c:	a7 01       	movw	r20, r14
     56e:	96 01       	movw	r18, r12
     570:	c3 01       	movw	r24, r6
     572:	b2 01       	movw	r22, r4
     574:	0e 94 7d 17 	call	0x2efa	; 0x2efa <__mulsf3>
     578:	9b 01       	movw	r18, r22
     57a:	ac 01       	movw	r20, r24
     57c:	69 81       	ldd	r22, Y+1	; 0x01
     57e:	7a 81       	ldd	r23, Y+2	; 0x02
     580:	8b 81       	ldd	r24, Y+3	; 0x03
     582:	9c 81       	ldd	r25, Y+4	; 0x04
     584:	0e 94 ee 15 	call	0x2bdc	; 0x2bdc <__addsf3>
     588:	6b 01       	movw	r12, r22
     58a:	7c 01       	movw	r14, r24
	xx*v[2] + ww*v[2];
     58c:	2d 81       	ldd	r18, Y+5	; 0x05
     58e:	3e 81       	ldd	r19, Y+6	; 0x06
     590:	4f 81       	ldd	r20, Y+7	; 0x07
     592:	58 85       	ldd	r21, Y+8	; 0x08
     594:	69 8d       	ldd	r22, Y+25	; 0x19
     596:	7a 8d       	ldd	r23, Y+26	; 0x1a
     598:	8b 8d       	ldd	r24, Y+27	; 0x1b
     59a:	9c 8d       	ldd	r25, Y+28	; 0x1c
     59c:	0e 94 7d 17 	call	0x2efa	; 0x2efa <__mulsf3>
     5a0:	9b 01       	movw	r18, r22
     5a2:	ac 01       	movw	r20, r24
	zz*v[0] - yy*v[0];
	result[1] = 2*xy*v[0] + yy*v[1] + 2*yz*v[2] +
	2*wz*v[0] - zz*v[1] + ww*v[1] -
	2*wx*v[2] - xx*v[1];
	result[2] = 2*xz*v[0] + 2*yz*v[1] + zz*v[2] -
	2*wy*v[0] - yy*v[2] + 2*wx*v[1] -
     5a4:	c7 01       	movw	r24, r14
     5a6:	b6 01       	movw	r22, r12
     5a8:	0e 94 ed 15 	call	0x2bda	; 0x2bda <__subsf3>
     5ac:	6b 01       	movw	r12, r22
     5ae:	7c 01       	movw	r14, r24
	xx*v[2] + ww*v[2];
     5b0:	2d 81       	ldd	r18, Y+5	; 0x05
     5b2:	3e 81       	ldd	r19, Y+6	; 0x06
     5b4:	4f 81       	ldd	r20, Y+7	; 0x07
     5b6:	58 85       	ldd	r21, Y+8	; 0x08
     5b8:	6d 89       	ldd	r22, Y+21	; 0x15
     5ba:	7e 89       	ldd	r23, Y+22	; 0x16
     5bc:	8f 89       	ldd	r24, Y+23	; 0x17
     5be:	98 8d       	ldd	r25, Y+24	; 0x18
     5c0:	0e 94 7d 17 	call	0x2efa	; 0x2efa <__mulsf3>
     5c4:	9b 01       	movw	r18, r22
     5c6:	ac 01       	movw	r20, r24
     5c8:	c7 01       	movw	r24, r14
     5ca:	b6 01       	movw	r22, r12
     5cc:	0e 94 ee 15 	call	0x2bdc	; 0x2bdc <__addsf3>

	// Copy result to output
	output[0] = result[0];
     5d0:	29 a9       	ldd	r18, Y+49	; 0x31
     5d2:	3a a9       	ldd	r19, Y+50	; 0x32
     5d4:	4b a9       	ldd	r20, Y+51	; 0x33
     5d6:	5c a9       	ldd	r21, Y+52	; 0x34
     5d8:	d1 01       	movw	r26, r2
     5da:	2d 93       	st	X+, r18
     5dc:	3d 93       	st	X+, r19
     5de:	4d 93       	st	X+, r20
     5e0:	5c 93       	st	X, r21
     5e2:	13 97       	sbiw	r26, 0x03	; 3
	output[1] = result[1];
     5e4:	f1 01       	movw	r30, r2
     5e6:	84 82       	std	Z+4, r8	; 0x04
     5e8:	95 82       	std	Z+5, r9	; 0x05
     5ea:	a6 82       	std	Z+6, r10	; 0x06
     5ec:	b7 82       	std	Z+7, r11	; 0x07
	output[2] = result[2];
     5ee:	18 96       	adiw	r26, 0x08	; 8
     5f0:	6d 93       	st	X+, r22
     5f2:	7d 93       	st	X+, r23
     5f4:	8d 93       	st	X+, r24
     5f6:	9c 93       	st	X, r25
     5f8:	1b 97       	sbiw	r26, 0x0b	; 11
}
     5fa:	e4 96       	adiw	r28, 0x34	; 52
     5fc:	0f b6       	in	r0, 0x3f	; 63
     5fe:	f8 94       	cli
     600:	de bf       	out	0x3e, r29	; 62
     602:	0f be       	out	0x3f, r0	; 63
     604:	cd bf       	out	0x3d, r28	; 61
     606:	df 91       	pop	r29
     608:	cf 91       	pop	r28
     60a:	1f 91       	pop	r17
     60c:	0f 91       	pop	r16
     60e:	ff 90       	pop	r15
     610:	ef 90       	pop	r14
     612:	df 90       	pop	r13
     614:	cf 90       	pop	r12
     616:	bf 90       	pop	r11
     618:	af 90       	pop	r10
     61a:	9f 90       	pop	r9
     61c:	8f 90       	pop	r8
     61e:	7f 90       	pop	r7
     620:	6f 90       	pop	r6
     622:	5f 90       	pop	r5
     624:	4f 90       	pop	r4
     626:	3f 90       	pop	r3
     628:	2f 90       	pop	r2
     62a:	08 95       	ret

0000062c <Quaternion_multiply>:

void Quaternion_multiply(float q1[3], float q2[3], float output[3])
{
     62c:	8f 92       	push	r8
     62e:	9f 92       	push	r9
     630:	af 92       	push	r10
     632:	bf 92       	push	r11
     634:	ef 92       	push	r14
     636:	ff 92       	push	r15
     638:	0f 93       	push	r16
     63a:	1f 93       	push	r17
     63c:	cf 93       	push	r28
     63e:	df 93       	push	r29
     640:	8c 01       	movw	r16, r24
     642:	eb 01       	movw	r28, r22
     644:	7a 01       	movw	r14, r20
    output[0] = q1[0]   *q2[0]    - q1[1]*q2[1] - q1[2]*q2[2] - q1[3]*q2[3];
     646:	fc 01       	movw	r30, r24
     648:	60 81       	ld	r22, Z
     64a:	71 81       	ldd	r23, Z+1	; 0x01
     64c:	82 81       	ldd	r24, Z+2	; 0x02
     64e:	93 81       	ldd	r25, Z+3	; 0x03
     650:	28 81       	ld	r18, Y
     652:	39 81       	ldd	r19, Y+1	; 0x01
     654:	4a 81       	ldd	r20, Y+2	; 0x02
     656:	5b 81       	ldd	r21, Y+3	; 0x03
     658:	0e 94 7d 17 	call	0x2efa	; 0x2efa <__mulsf3>
     65c:	4b 01       	movw	r8, r22
     65e:	5c 01       	movw	r10, r24
     660:	f8 01       	movw	r30, r16
     662:	64 81       	ldd	r22, Z+4	; 0x04
     664:	75 81       	ldd	r23, Z+5	; 0x05
     666:	86 81       	ldd	r24, Z+6	; 0x06
     668:	97 81       	ldd	r25, Z+7	; 0x07
     66a:	2c 81       	ldd	r18, Y+4	; 0x04
     66c:	3d 81       	ldd	r19, Y+5	; 0x05
     66e:	4e 81       	ldd	r20, Y+6	; 0x06
     670:	5f 81       	ldd	r21, Y+7	; 0x07
     672:	0e 94 7d 17 	call	0x2efa	; 0x2efa <__mulsf3>
     676:	9b 01       	movw	r18, r22
     678:	ac 01       	movw	r20, r24
     67a:	c5 01       	movw	r24, r10
     67c:	b4 01       	movw	r22, r8
     67e:	0e 94 ed 15 	call	0x2bda	; 0x2bda <__subsf3>
     682:	4b 01       	movw	r8, r22
     684:	5c 01       	movw	r10, r24
     686:	f8 01       	movw	r30, r16
     688:	60 85       	ldd	r22, Z+8	; 0x08
     68a:	71 85       	ldd	r23, Z+9	; 0x09
     68c:	82 85       	ldd	r24, Z+10	; 0x0a
     68e:	93 85       	ldd	r25, Z+11	; 0x0b
     690:	28 85       	ldd	r18, Y+8	; 0x08
     692:	39 85       	ldd	r19, Y+9	; 0x09
     694:	4a 85       	ldd	r20, Y+10	; 0x0a
     696:	5b 85       	ldd	r21, Y+11	; 0x0b
     698:	0e 94 7d 17 	call	0x2efa	; 0x2efa <__mulsf3>
     69c:	9b 01       	movw	r18, r22
     69e:	ac 01       	movw	r20, r24
     6a0:	c5 01       	movw	r24, r10
     6a2:	b4 01       	movw	r22, r8
     6a4:	0e 94 ed 15 	call	0x2bda	; 0x2bda <__subsf3>
     6a8:	4b 01       	movw	r8, r22
     6aa:	5c 01       	movw	r10, r24
     6ac:	f8 01       	movw	r30, r16
     6ae:	64 85       	ldd	r22, Z+12	; 0x0c
     6b0:	75 85       	ldd	r23, Z+13	; 0x0d
     6b2:	86 85       	ldd	r24, Z+14	; 0x0e
     6b4:	97 85       	ldd	r25, Z+15	; 0x0f
     6b6:	2c 85       	ldd	r18, Y+12	; 0x0c
     6b8:	3d 85       	ldd	r19, Y+13	; 0x0d
     6ba:	4e 85       	ldd	r20, Y+14	; 0x0e
     6bc:	5f 85       	ldd	r21, Y+15	; 0x0f
     6be:	0e 94 7d 17 	call	0x2efa	; 0x2efa <__mulsf3>
     6c2:	9b 01       	movw	r18, r22
     6c4:	ac 01       	movw	r20, r24
     6c6:	c5 01       	movw	r24, r10
     6c8:	b4 01       	movw	r22, r8
     6ca:	0e 94 ed 15 	call	0x2bda	; 0x2bda <__subsf3>
     6ce:	f7 01       	movw	r30, r14
     6d0:	60 83       	st	Z, r22
     6d2:	71 83       	std	Z+1, r23	; 0x01
     6d4:	82 83       	std	Z+2, r24	; 0x02
     6d6:	93 83       	std	Z+3, r25	; 0x03
    output[1] = q1[1]*q2[0]    + q1[0]   *q2[1] + q1[2]*q2[3] - q1[3]*q2[2];
     6d8:	f8 01       	movw	r30, r16
     6da:	64 81       	ldd	r22, Z+4	; 0x04
     6dc:	75 81       	ldd	r23, Z+5	; 0x05
     6de:	86 81       	ldd	r24, Z+6	; 0x06
     6e0:	97 81       	ldd	r25, Z+7	; 0x07
     6e2:	28 81       	ld	r18, Y
     6e4:	39 81       	ldd	r19, Y+1	; 0x01
     6e6:	4a 81       	ldd	r20, Y+2	; 0x02
     6e8:	5b 81       	ldd	r21, Y+3	; 0x03
     6ea:	0e 94 7d 17 	call	0x2efa	; 0x2efa <__mulsf3>
     6ee:	4b 01       	movw	r8, r22
     6f0:	5c 01       	movw	r10, r24
     6f2:	f8 01       	movw	r30, r16
     6f4:	60 81       	ld	r22, Z
     6f6:	71 81       	ldd	r23, Z+1	; 0x01
     6f8:	82 81       	ldd	r24, Z+2	; 0x02
     6fa:	93 81       	ldd	r25, Z+3	; 0x03
     6fc:	2c 81       	ldd	r18, Y+4	; 0x04
     6fe:	3d 81       	ldd	r19, Y+5	; 0x05
     700:	4e 81       	ldd	r20, Y+6	; 0x06
     702:	5f 81       	ldd	r21, Y+7	; 0x07
     704:	0e 94 7d 17 	call	0x2efa	; 0x2efa <__mulsf3>
     708:	9b 01       	movw	r18, r22
     70a:	ac 01       	movw	r20, r24
     70c:	c5 01       	movw	r24, r10
     70e:	b4 01       	movw	r22, r8
     710:	0e 94 ee 15 	call	0x2bdc	; 0x2bdc <__addsf3>
     714:	4b 01       	movw	r8, r22
     716:	5c 01       	movw	r10, r24
     718:	f8 01       	movw	r30, r16
     71a:	60 85       	ldd	r22, Z+8	; 0x08
     71c:	71 85       	ldd	r23, Z+9	; 0x09
     71e:	82 85       	ldd	r24, Z+10	; 0x0a
     720:	93 85       	ldd	r25, Z+11	; 0x0b
     722:	2c 85       	ldd	r18, Y+12	; 0x0c
     724:	3d 85       	ldd	r19, Y+13	; 0x0d
     726:	4e 85       	ldd	r20, Y+14	; 0x0e
     728:	5f 85       	ldd	r21, Y+15	; 0x0f
     72a:	0e 94 7d 17 	call	0x2efa	; 0x2efa <__mulsf3>
     72e:	9b 01       	movw	r18, r22
     730:	ac 01       	movw	r20, r24
     732:	c5 01       	movw	r24, r10
     734:	b4 01       	movw	r22, r8
     736:	0e 94 ee 15 	call	0x2bdc	; 0x2bdc <__addsf3>
     73a:	4b 01       	movw	r8, r22
     73c:	5c 01       	movw	r10, r24
     73e:	f8 01       	movw	r30, r16
     740:	64 85       	ldd	r22, Z+12	; 0x0c
     742:	75 85       	ldd	r23, Z+13	; 0x0d
     744:	86 85       	ldd	r24, Z+14	; 0x0e
     746:	97 85       	ldd	r25, Z+15	; 0x0f
     748:	28 85       	ldd	r18, Y+8	; 0x08
     74a:	39 85       	ldd	r19, Y+9	; 0x09
     74c:	4a 85       	ldd	r20, Y+10	; 0x0a
     74e:	5b 85       	ldd	r21, Y+11	; 0x0b
     750:	0e 94 7d 17 	call	0x2efa	; 0x2efa <__mulsf3>
     754:	9b 01       	movw	r18, r22
     756:	ac 01       	movw	r20, r24
     758:	c5 01       	movw	r24, r10
     75a:	b4 01       	movw	r22, r8
     75c:	0e 94 ed 15 	call	0x2bda	; 0x2bda <__subsf3>
     760:	f7 01       	movw	r30, r14
     762:	64 83       	std	Z+4, r22	; 0x04
     764:	75 83       	std	Z+5, r23	; 0x05
     766:	86 83       	std	Z+6, r24	; 0x06
     768:	97 83       	std	Z+7, r25	; 0x07
    output[2] = q1[0]   *q2[2] - q1[1]*q2[3] + q1[2]*q2[0]    + q1[3]*q2[1];
     76a:	f8 01       	movw	r30, r16
     76c:	60 81       	ld	r22, Z
     76e:	71 81       	ldd	r23, Z+1	; 0x01
     770:	82 81       	ldd	r24, Z+2	; 0x02
     772:	93 81       	ldd	r25, Z+3	; 0x03
     774:	28 85       	ldd	r18, Y+8	; 0x08
     776:	39 85       	ldd	r19, Y+9	; 0x09
     778:	4a 85       	ldd	r20, Y+10	; 0x0a
     77a:	5b 85       	ldd	r21, Y+11	; 0x0b
     77c:	0e 94 7d 17 	call	0x2efa	; 0x2efa <__mulsf3>
     780:	4b 01       	movw	r8, r22
     782:	5c 01       	movw	r10, r24
     784:	f8 01       	movw	r30, r16
     786:	64 81       	ldd	r22, Z+4	; 0x04
     788:	75 81       	ldd	r23, Z+5	; 0x05
     78a:	86 81       	ldd	r24, Z+6	; 0x06
     78c:	97 81       	ldd	r25, Z+7	; 0x07
     78e:	2c 85       	ldd	r18, Y+12	; 0x0c
     790:	3d 85       	ldd	r19, Y+13	; 0x0d
     792:	4e 85       	ldd	r20, Y+14	; 0x0e
     794:	5f 85       	ldd	r21, Y+15	; 0x0f
     796:	0e 94 7d 17 	call	0x2efa	; 0x2efa <__mulsf3>
     79a:	9b 01       	movw	r18, r22
     79c:	ac 01       	movw	r20, r24
     79e:	c5 01       	movw	r24, r10
     7a0:	b4 01       	movw	r22, r8
     7a2:	0e 94 ed 15 	call	0x2bda	; 0x2bda <__subsf3>
     7a6:	4b 01       	movw	r8, r22
     7a8:	5c 01       	movw	r10, r24
     7aa:	f8 01       	movw	r30, r16
     7ac:	60 85       	ldd	r22, Z+8	; 0x08
     7ae:	71 85       	ldd	r23, Z+9	; 0x09
     7b0:	82 85       	ldd	r24, Z+10	; 0x0a
     7b2:	93 85       	ldd	r25, Z+11	; 0x0b
     7b4:	28 81       	ld	r18, Y
     7b6:	39 81       	ldd	r19, Y+1	; 0x01
     7b8:	4a 81       	ldd	r20, Y+2	; 0x02
     7ba:	5b 81       	ldd	r21, Y+3	; 0x03
     7bc:	0e 94 7d 17 	call	0x2efa	; 0x2efa <__mulsf3>
     7c0:	9b 01       	movw	r18, r22
     7c2:	ac 01       	movw	r20, r24
     7c4:	c5 01       	movw	r24, r10
     7c6:	b4 01       	movw	r22, r8
     7c8:	0e 94 ee 15 	call	0x2bdc	; 0x2bdc <__addsf3>
     7cc:	4b 01       	movw	r8, r22
     7ce:	5c 01       	movw	r10, r24
     7d0:	f8 01       	movw	r30, r16
     7d2:	64 85       	ldd	r22, Z+12	; 0x0c
     7d4:	75 85       	ldd	r23, Z+13	; 0x0d
     7d6:	86 85       	ldd	r24, Z+14	; 0x0e
     7d8:	97 85       	ldd	r25, Z+15	; 0x0f
     7da:	2c 81       	ldd	r18, Y+4	; 0x04
     7dc:	3d 81       	ldd	r19, Y+5	; 0x05
     7de:	4e 81       	ldd	r20, Y+6	; 0x06
     7e0:	5f 81       	ldd	r21, Y+7	; 0x07
     7e2:	0e 94 7d 17 	call	0x2efa	; 0x2efa <__mulsf3>
     7e6:	9b 01       	movw	r18, r22
     7e8:	ac 01       	movw	r20, r24
     7ea:	c5 01       	movw	r24, r10
     7ec:	b4 01       	movw	r22, r8
     7ee:	0e 94 ee 15 	call	0x2bdc	; 0x2bdc <__addsf3>
     7f2:	f7 01       	movw	r30, r14
     7f4:	60 87       	std	Z+8, r22	; 0x08
     7f6:	71 87       	std	Z+9, r23	; 0x09
     7f8:	82 87       	std	Z+10, r24	; 0x0a
     7fa:	93 87       	std	Z+11, r25	; 0x0b
    output[3] = q1[0]   *q2[3] + q1[1]*q2[2] - q1[2]*q2[1] + q1[3]*q2[0]   ;
     7fc:	f8 01       	movw	r30, r16
     7fe:	60 81       	ld	r22, Z
     800:	71 81       	ldd	r23, Z+1	; 0x01
     802:	82 81       	ldd	r24, Z+2	; 0x02
     804:	93 81       	ldd	r25, Z+3	; 0x03
     806:	2c 85       	ldd	r18, Y+12	; 0x0c
     808:	3d 85       	ldd	r19, Y+13	; 0x0d
     80a:	4e 85       	ldd	r20, Y+14	; 0x0e
     80c:	5f 85       	ldd	r21, Y+15	; 0x0f
     80e:	0e 94 7d 17 	call	0x2efa	; 0x2efa <__mulsf3>
     812:	4b 01       	movw	r8, r22
     814:	5c 01       	movw	r10, r24
     816:	f8 01       	movw	r30, r16
     818:	64 81       	ldd	r22, Z+4	; 0x04
     81a:	75 81       	ldd	r23, Z+5	; 0x05
     81c:	86 81       	ldd	r24, Z+6	; 0x06
     81e:	97 81       	ldd	r25, Z+7	; 0x07
     820:	28 85       	ldd	r18, Y+8	; 0x08
     822:	39 85       	ldd	r19, Y+9	; 0x09
     824:	4a 85       	ldd	r20, Y+10	; 0x0a
     826:	5b 85       	ldd	r21, Y+11	; 0x0b
     828:	0e 94 7d 17 	call	0x2efa	; 0x2efa <__mulsf3>
     82c:	9b 01       	movw	r18, r22
     82e:	ac 01       	movw	r20, r24
     830:	c5 01       	movw	r24, r10
     832:	b4 01       	movw	r22, r8
     834:	0e 94 ee 15 	call	0x2bdc	; 0x2bdc <__addsf3>
     838:	4b 01       	movw	r8, r22
     83a:	5c 01       	movw	r10, r24
     83c:	f8 01       	movw	r30, r16
     83e:	60 85       	ldd	r22, Z+8	; 0x08
     840:	71 85       	ldd	r23, Z+9	; 0x09
     842:	82 85       	ldd	r24, Z+10	; 0x0a
     844:	93 85       	ldd	r25, Z+11	; 0x0b
     846:	2c 81       	ldd	r18, Y+4	; 0x04
     848:	3d 81       	ldd	r19, Y+5	; 0x05
     84a:	4e 81       	ldd	r20, Y+6	; 0x06
     84c:	5f 81       	ldd	r21, Y+7	; 0x07
     84e:	0e 94 7d 17 	call	0x2efa	; 0x2efa <__mulsf3>
     852:	9b 01       	movw	r18, r22
     854:	ac 01       	movw	r20, r24
     856:	c5 01       	movw	r24, r10
     858:	b4 01       	movw	r22, r8
     85a:	0e 94 ed 15 	call	0x2bda	; 0x2bda <__subsf3>
     85e:	4b 01       	movw	r8, r22
     860:	5c 01       	movw	r10, r24
     862:	f8 01       	movw	r30, r16
     864:	64 85       	ldd	r22, Z+12	; 0x0c
     866:	75 85       	ldd	r23, Z+13	; 0x0d
     868:	86 85       	ldd	r24, Z+14	; 0x0e
     86a:	97 85       	ldd	r25, Z+15	; 0x0f
     86c:	28 81       	ld	r18, Y
     86e:	39 81       	ldd	r19, Y+1	; 0x01
     870:	4a 81       	ldd	r20, Y+2	; 0x02
     872:	5b 81       	ldd	r21, Y+3	; 0x03
     874:	0e 94 7d 17 	call	0x2efa	; 0x2efa <__mulsf3>
     878:	9b 01       	movw	r18, r22
     87a:	ac 01       	movw	r20, r24
     87c:	c5 01       	movw	r24, r10
     87e:	b4 01       	movw	r22, r8
     880:	0e 94 ee 15 	call	0x2bdc	; 0x2bdc <__addsf3>
     884:	f7 01       	movw	r30, r14
     886:	64 87       	std	Z+12, r22	; 0x0c
     888:	75 87       	std	Z+13, r23	; 0x0d
     88a:	86 87       	std	Z+14, r24	; 0x0e
     88c:	97 87       	std	Z+15, r25	; 0x0f
}
     88e:	df 91       	pop	r29
     890:	cf 91       	pop	r28
     892:	1f 91       	pop	r17
     894:	0f 91       	pop	r16
     896:	ff 90       	pop	r15
     898:	ef 90       	pop	r14
     89a:	bf 90       	pop	r11
     89c:	af 90       	pop	r10
     89e:	9f 90       	pop	r9
     8a0:	8f 90       	pop	r8
     8a2:	08 95       	ret

000008a4 <AHRS_Init>:



void AHRS_Init(float* q, float ax, float ay, float az, float mx, float my, float mz)
{
     8a4:	2f 92       	push	r2
     8a6:	3f 92       	push	r3
     8a8:	4f 92       	push	r4
     8aa:	5f 92       	push	r5
     8ac:	6f 92       	push	r6
     8ae:	7f 92       	push	r7
     8b0:	8f 92       	push	r8
     8b2:	9f 92       	push	r9
     8b4:	af 92       	push	r10
     8b6:	bf 92       	push	r11
     8b8:	cf 92       	push	r12
     8ba:	df 92       	push	r13
     8bc:	ef 92       	push	r14
     8be:	ff 92       	push	r15
     8c0:	0f 93       	push	r16
     8c2:	1f 93       	push	r17
     8c4:	cf 93       	push	r28
     8c6:	df 93       	push	r29
     8c8:	cd b7       	in	r28, 0x3d	; 61
     8ca:	de b7       	in	r29, 0x3e	; 62
     8cc:	e0 97       	sbiw	r28, 0x30	; 48
     8ce:	0f b6       	in	r0, 0x3f	; 63
     8d0:	f8 94       	cli
     8d2:	de bf       	out	0x3e, r29	; 62
     8d4:	0f be       	out	0x3f, r0	; 63
     8d6:	cd bf       	out	0x3d, r28	; 61
     8d8:	1c 01       	movw	r2, r24
     8da:	2a 01       	movw	r4, r20
     8dc:	3b 01       	movw	r6, r22
     8de:	0d a7       	std	Y+45, r16	; 0x2d
     8e0:	1e a7       	std	Y+46, r17	; 0x2e
     8e2:	2f a7       	std	Y+47, r18	; 0x2f
     8e4:	38 ab       	std	Y+48, r19	; 0x30
	float AccelNorm = sqrt(ax * ax + ay * ay + az * az);
     8e6:	9a 01       	movw	r18, r20
     8e8:	ab 01       	movw	r20, r22
     8ea:	c3 01       	movw	r24, r6
     8ec:	b2 01       	movw	r22, r4
     8ee:	0e 94 7d 17 	call	0x2efa	; 0x2efa <__mulsf3>
     8f2:	6d a3       	std	Y+37, r22	; 0x25
     8f4:	7e a3       	std	Y+38, r23	; 0x26
     8f6:	8f a3       	std	Y+39, r24	; 0x27
     8f8:	98 a7       	std	Y+40, r25	; 0x28
     8fa:	2d a5       	ldd	r18, Y+45	; 0x2d
     8fc:	3e a5       	ldd	r19, Y+46	; 0x2e
     8fe:	4f a5       	ldd	r20, Y+47	; 0x2f
     900:	58 a9       	ldd	r21, Y+48	; 0x30
     902:	ca 01       	movw	r24, r20
     904:	b9 01       	movw	r22, r18
     906:	0e 94 7d 17 	call	0x2efa	; 0x2efa <__mulsf3>
     90a:	9b 01       	movw	r18, r22
     90c:	ac 01       	movw	r20, r24
     90e:	6d a1       	ldd	r22, Y+37	; 0x25
     910:	7e a1       	ldd	r23, Y+38	; 0x26
     912:	8f a1       	ldd	r24, Y+39	; 0x27
     914:	98 a5       	ldd	r25, Y+40	; 0x28
     916:	0e 94 ee 15 	call	0x2bdc	; 0x2bdc <__addsf3>
     91a:	6d a3       	std	Y+37, r22	; 0x25
     91c:	7e a3       	std	Y+38, r23	; 0x26
     91e:	8f a3       	std	Y+39, r24	; 0x27
     920:	98 a7       	std	Y+40, r25	; 0x28
     922:	a7 01       	movw	r20, r14
     924:	96 01       	movw	r18, r12
     926:	c7 01       	movw	r24, r14
     928:	b6 01       	movw	r22, r12
     92a:	0e 94 7d 17 	call	0x2efa	; 0x2efa <__mulsf3>
     92e:	9b 01       	movw	r18, r22
     930:	ac 01       	movw	r20, r24
     932:	6d a1       	ldd	r22, Y+37	; 0x25
     934:	7e a1       	ldd	r23, Y+38	; 0x26
     936:	8f a1       	ldd	r24, Y+39	; 0x27
     938:	98 a5       	ldd	r25, Y+40	; 0x28
     93a:	0e 94 ee 15 	call	0x2bdc	; 0x2bdc <__addsf3>
     93e:	0e 94 e4 17 	call	0x2fc8	; 0x2fc8 <sqrt>
     942:	6d a3       	std	Y+37, r22	; 0x25
     944:	7e a3       	std	Y+38, r23	; 0x26
     946:	8f a3       	std	Y+39, r24	; 0x27
     948:	98 a7       	std	Y+40, r25	; 0x28
	float MagNorm = sqrt(mx * mx + my * my + mz * mz);
     94a:	a5 01       	movw	r20, r10
     94c:	94 01       	movw	r18, r8
     94e:	c5 01       	movw	r24, r10
     950:	b4 01       	movw	r22, r8
     952:	0e 94 7d 17 	call	0x2efa	; 0x2efa <__mulsf3>
     956:	69 a7       	std	Y+41, r22	; 0x29
     958:	7a a7       	std	Y+42, r23	; 0x2a
     95a:	8b a7       	std	Y+43, r24	; 0x2b
     95c:	9c a7       	std	Y+44, r25	; 0x2c
     95e:	29 96       	adiw	r28, 0x09	; 9
     960:	2c ad       	ldd	r18, Y+60	; 0x3c
     962:	3d ad       	ldd	r19, Y+61	; 0x3d
     964:	4e ad       	ldd	r20, Y+62	; 0x3e
     966:	5f ad       	ldd	r21, Y+63	; 0x3f
     968:	29 97       	sbiw	r28, 0x09	; 9
     96a:	ca 01       	movw	r24, r20
     96c:	b9 01       	movw	r22, r18
     96e:	0e 94 7d 17 	call	0x2efa	; 0x2efa <__mulsf3>
     972:	9b 01       	movw	r18, r22
     974:	ac 01       	movw	r20, r24
     976:	69 a5       	ldd	r22, Y+41	; 0x29
     978:	7a a5       	ldd	r23, Y+42	; 0x2a
     97a:	8b a5       	ldd	r24, Y+43	; 0x2b
     97c:	9c a5       	ldd	r25, Y+44	; 0x2c
     97e:	0e 94 ee 15 	call	0x2bdc	; 0x2bdc <__addsf3>
     982:	69 a7       	std	Y+41, r22	; 0x29
     984:	7a a7       	std	Y+42, r23	; 0x2a
     986:	8b a7       	std	Y+43, r24	; 0x2b
     988:	9c a7       	std	Y+44, r25	; 0x2c
     98a:	2d 96       	adiw	r28, 0x0d	; 13
     98c:	2c ad       	ldd	r18, Y+60	; 0x3c
     98e:	3d ad       	ldd	r19, Y+61	; 0x3d
     990:	4e ad       	ldd	r20, Y+62	; 0x3e
     992:	5f ad       	ldd	r21, Y+63	; 0x3f
     994:	2d 97       	sbiw	r28, 0x0d	; 13
     996:	ca 01       	movw	r24, r20
     998:	b9 01       	movw	r22, r18
     99a:	0e 94 7d 17 	call	0x2efa	; 0x2efa <__mulsf3>
     99e:	9b 01       	movw	r18, r22
     9a0:	ac 01       	movw	r20, r24
     9a2:	69 a5       	ldd	r22, Y+41	; 0x29
     9a4:	7a a5       	ldd	r23, Y+42	; 0x2a
     9a6:	8b a5       	ldd	r24, Y+43	; 0x2b
     9a8:	9c a5       	ldd	r25, Y+44	; 0x2c
     9aa:	0e 94 ee 15 	call	0x2bdc	; 0x2bdc <__addsf3>
     9ae:	0e 94 e4 17 	call	0x2fc8	; 0x2fc8 <sqrt>
     9b2:	69 a7       	std	Y+41, r22	; 0x29
     9b4:	7a a7       	std	Y+42, r23	; 0x2a
     9b6:	8b a7       	std	Y+43, r24	; 0x2b
     9b8:	9c a7       	std	Y+44, r25	; 0x2c
	float NormalizedAccel[3], NormalizedMag[3], PredictedMagneticfield[3], q_delta[3];
	float Gamma;
	NormalizedAccel[0] = ax / AccelNorm;
     9ba:	2d a1       	ldd	r18, Y+37	; 0x25
     9bc:	3e a1       	ldd	r19, Y+38	; 0x26
     9be:	4f a1       	ldd	r20, Y+39	; 0x27
     9c0:	58 a5       	ldd	r21, Y+40	; 0x28
     9c2:	c3 01       	movw	r24, r6
     9c4:	b2 01       	movw	r22, r4
     9c6:	0e 94 52 16 	call	0x2ca4	; 0x2ca4 <__divsf3>
     9ca:	2b 01       	movw	r4, r22
     9cc:	3c 01       	movw	r6, r24
	NormalizedAccel[1] = ay / AccelNorm;
     9ce:	2d a1       	ldd	r18, Y+37	; 0x25
     9d0:	3e a1       	ldd	r19, Y+38	; 0x26
     9d2:	4f a1       	ldd	r20, Y+39	; 0x27
     9d4:	58 a5       	ldd	r21, Y+40	; 0x28
     9d6:	6d a5       	ldd	r22, Y+45	; 0x2d
     9d8:	7e a5       	ldd	r23, Y+46	; 0x2e
     9da:	8f a5       	ldd	r24, Y+47	; 0x2f
     9dc:	98 a9       	ldd	r25, Y+48	; 0x30
     9de:	0e 94 52 16 	call	0x2ca4	; 0x2ca4 <__divsf3>
     9e2:	6d a7       	std	Y+45, r22	; 0x2d
     9e4:	7e a7       	std	Y+46, r23	; 0x2e
     9e6:	8f a7       	std	Y+47, r24	; 0x2f
     9e8:	98 ab       	std	Y+48, r25	; 0x30
	NormalizedAccel[2] = az / AccelNorm;
     9ea:	2d a1       	ldd	r18, Y+37	; 0x25
     9ec:	3e a1       	ldd	r19, Y+38	; 0x26
     9ee:	4f a1       	ldd	r20, Y+39	; 0x27
     9f0:	58 a5       	ldd	r21, Y+40	; 0x28
     9f2:	c7 01       	movw	r24, r14
     9f4:	b6 01       	movw	r22, r12
     9f6:	0e 94 52 16 	call	0x2ca4	; 0x2ca4 <__divsf3>
     9fa:	6d a3       	std	Y+37, r22	; 0x25
     9fc:	7e a3       	std	Y+38, r23	; 0x26
     9fe:	8f a3       	std	Y+39, r24	; 0x27
     a00:	98 a7       	std	Y+40, r25	; 0x28
	NormalizedMag[0] = mx / MagNorm;
     a02:	29 a5       	ldd	r18, Y+41	; 0x29
     a04:	3a a5       	ldd	r19, Y+42	; 0x2a
     a06:	4b a5       	ldd	r20, Y+43	; 0x2b
     a08:	5c a5       	ldd	r21, Y+44	; 0x2c
     a0a:	c5 01       	movw	r24, r10
     a0c:	b4 01       	movw	r22, r8
     a0e:	0e 94 52 16 	call	0x2ca4	; 0x2ca4 <__divsf3>
     a12:	69 83       	std	Y+1, r22	; 0x01
     a14:	7a 83       	std	Y+2, r23	; 0x02
     a16:	8b 83       	std	Y+3, r24	; 0x03
     a18:	9c 83       	std	Y+4, r25	; 0x04
	NormalizedMag[1] = my / MagNorm;
     a1a:	29 a5       	ldd	r18, Y+41	; 0x29
     a1c:	3a a5       	ldd	r19, Y+42	; 0x2a
     a1e:	4b a5       	ldd	r20, Y+43	; 0x2b
     a20:	5c a5       	ldd	r21, Y+44	; 0x2c
     a22:	29 96       	adiw	r28, 0x09	; 9
     a24:	6c ad       	ldd	r22, Y+60	; 0x3c
     a26:	7d ad       	ldd	r23, Y+61	; 0x3d
     a28:	8e ad       	ldd	r24, Y+62	; 0x3e
     a2a:	9f ad       	ldd	r25, Y+63	; 0x3f
     a2c:	29 97       	sbiw	r28, 0x09	; 9
     a2e:	0e 94 52 16 	call	0x2ca4	; 0x2ca4 <__divsf3>
     a32:	6d 83       	std	Y+5, r22	; 0x05
     a34:	7e 83       	std	Y+6, r23	; 0x06
     a36:	8f 83       	std	Y+7, r24	; 0x07
     a38:	98 87       	std	Y+8, r25	; 0x08
	NormalizedMag[2] = mz / MagNorm;
     a3a:	29 a5       	ldd	r18, Y+41	; 0x29
     a3c:	3a a5       	ldd	r19, Y+42	; 0x2a
     a3e:	4b a5       	ldd	r20, Y+43	; 0x2b
     a40:	5c a5       	ldd	r21, Y+44	; 0x2c
     a42:	2d 96       	adiw	r28, 0x0d	; 13
     a44:	6c ad       	ldd	r22, Y+60	; 0x3c
     a46:	7d ad       	ldd	r23, Y+61	; 0x3d
     a48:	8e ad       	ldd	r24, Y+62	; 0x3e
     a4a:	9f ad       	ldd	r25, Y+63	; 0x3f
     a4c:	2d 97       	sbiw	r28, 0x0d	; 13
     a4e:	0e 94 52 16 	call	0x2ca4	; 0x2ca4 <__divsf3>
     a52:	69 87       	std	Y+9, r22	; 0x09
     a54:	7a 87       	std	Y+10, r23	; 0x0a
     a56:	8b 87       	std	Y+11, r24	; 0x0b
     a58:	9c 87       	std	Y+12, r25	; 0x0c

	if (NormalizedAccel[2] > 0)
     a5a:	20 e0       	ldi	r18, 0x00	; 0
     a5c:	30 e0       	ldi	r19, 0x00	; 0
     a5e:	a9 01       	movw	r20, r18
     a60:	6d a1       	ldd	r22, Y+37	; 0x25
     a62:	7e a1       	ldd	r23, Y+38	; 0x26
     a64:	8f a1       	ldd	r24, Y+39	; 0x27
     a66:	98 a5       	ldd	r25, Y+40	; 0x28
     a68:	0e 94 79 17 	call	0x2ef2	; 0x2ef2 <__gesf2>
     a6c:	18 16       	cp	r1, r24
     a6e:	0c f0       	brlt	.+2      	; 0xa72 <AHRS_Init+0x1ce>
     a70:	41 c0       	rjmp	.+130    	; 0xaf4 <AHRS_Init+0x250>
	{
		q[0] = sqrt((NormalizedAccel[2] + 1) / 2);
     a72:	20 e0       	ldi	r18, 0x00	; 0
     a74:	30 e0       	ldi	r19, 0x00	; 0
     a76:	40 e8       	ldi	r20, 0x80	; 128
     a78:	5f e3       	ldi	r21, 0x3F	; 63
     a7a:	6d a1       	ldd	r22, Y+37	; 0x25
     a7c:	7e a1       	ldd	r23, Y+38	; 0x26
     a7e:	8f a1       	ldd	r24, Y+39	; 0x27
     a80:	98 a5       	ldd	r25, Y+40	; 0x28
     a82:	0e 94 ee 15 	call	0x2bdc	; 0x2bdc <__addsf3>
     a86:	6b 01       	movw	r12, r22
     a88:	7c 01       	movw	r14, r24
     a8a:	20 e0       	ldi	r18, 0x00	; 0
     a8c:	30 e0       	ldi	r19, 0x00	; 0
     a8e:	40 e0       	ldi	r20, 0x00	; 0
     a90:	5f e3       	ldi	r21, 0x3F	; 63
     a92:	0e 94 7d 17 	call	0x2efa	; 0x2efa <__mulsf3>
     a96:	0e 94 e4 17 	call	0x2fc8	; 0x2fc8 <sqrt>
     a9a:	f1 01       	movw	r30, r2
     a9c:	60 83       	st	Z, r22
     a9e:	71 83       	std	Z+1, r23	; 0x01
     aa0:	82 83       	std	Z+2, r24	; 0x02
     aa2:	93 83       	std	Z+3, r25	; 0x03
		q[1] = NormalizedAccel[1] / sqrt(2 * (NormalizedAccel[2] + 1));
     aa4:	a7 01       	movw	r20, r14
     aa6:	96 01       	movw	r18, r12
     aa8:	c7 01       	movw	r24, r14
     aaa:	b6 01       	movw	r22, r12
     aac:	0e 94 ee 15 	call	0x2bdc	; 0x2bdc <__addsf3>
     ab0:	0e 94 e4 17 	call	0x2fc8	; 0x2fc8 <sqrt>
     ab4:	6b 01       	movw	r12, r22
     ab6:	7c 01       	movw	r14, r24
     ab8:	9b 01       	movw	r18, r22
     aba:	ac 01       	movw	r20, r24
     abc:	6d a5       	ldd	r22, Y+45	; 0x2d
     abe:	7e a5       	ldd	r23, Y+46	; 0x2e
     ac0:	8f a5       	ldd	r24, Y+47	; 0x2f
     ac2:	98 a9       	ldd	r25, Y+48	; 0x30
     ac4:	0e 94 52 16 	call	0x2ca4	; 0x2ca4 <__divsf3>
     ac8:	f1 01       	movw	r30, r2
     aca:	64 83       	std	Z+4, r22	; 0x04
     acc:	75 83       	std	Z+5, r23	; 0x05
     ace:	86 83       	std	Z+6, r24	; 0x06
     ad0:	97 83       	std	Z+7, r25	; 0x07
		q[2] = -NormalizedAccel[0] / sqrt(2 * (NormalizedAccel[2] + 1));
     ad2:	c3 01       	movw	r24, r6
     ad4:	b2 01       	movw	r22, r4
     ad6:	90 58       	subi	r25, 0x80	; 128
     ad8:	a7 01       	movw	r20, r14
     ada:	96 01       	movw	r18, r12
     adc:	0e 94 52 16 	call	0x2ca4	; 0x2ca4 <__divsf3>
     ae0:	f1 01       	movw	r30, r2
     ae2:	60 87       	std	Z+8, r22	; 0x08
     ae4:	71 87       	std	Z+9, r23	; 0x09
     ae6:	82 87       	std	Z+10, r24	; 0x0a
     ae8:	93 87       	std	Z+11, r25	; 0x0b
		q[3] = 0;
     aea:	14 86       	std	Z+12, r1	; 0x0c
     aec:	15 86       	std	Z+13, r1	; 0x0d
     aee:	16 86       	std	Z+14, r1	; 0x0e
     af0:	17 86       	std	Z+15, r1	; 0x0f
     af2:	5c c0       	rjmp	.+184    	; 0xbac <AHRS_Init+0x308>
	}
	else
	{
		q[0] = -NormalizedAccel[1] / sqrt(2 * (-NormalizedAccel[2] + 1));
     af4:	cd a4       	ldd	r12, Y+45	; 0x2d
     af6:	de a4       	ldd	r13, Y+46	; 0x2e
     af8:	ef a4       	ldd	r14, Y+47	; 0x2f
     afa:	f8 a8       	ldd	r15, Y+48	; 0x30
     afc:	f7 fa       	bst	r15, 7
     afe:	f0 94       	com	r15
     b00:	f7 f8       	bld	r15, 7
     b02:	f0 94       	com	r15
     b04:	2d a1       	ldd	r18, Y+37	; 0x25
     b06:	3e a1       	ldd	r19, Y+38	; 0x26
     b08:	4f a1       	ldd	r20, Y+39	; 0x27
     b0a:	58 a5       	ldd	r21, Y+40	; 0x28
     b0c:	60 e0       	ldi	r22, 0x00	; 0
     b0e:	70 e0       	ldi	r23, 0x00	; 0
     b10:	80 e8       	ldi	r24, 0x80	; 128
     b12:	9f e3       	ldi	r25, 0x3F	; 63
     b14:	0e 94 ed 15 	call	0x2bda	; 0x2bda <__subsf3>
     b18:	4b 01       	movw	r8, r22
     b1a:	5c 01       	movw	r10, r24
     b1c:	9b 01       	movw	r18, r22
     b1e:	ac 01       	movw	r20, r24
     b20:	0e 94 ee 15 	call	0x2bdc	; 0x2bdc <__addsf3>
     b24:	0e 94 e4 17 	call	0x2fc8	; 0x2fc8 <sqrt>
     b28:	9b 01       	movw	r18, r22
     b2a:	ac 01       	movw	r20, r24
     b2c:	c7 01       	movw	r24, r14
     b2e:	b6 01       	movw	r22, r12
     b30:	0e 94 52 16 	call	0x2ca4	; 0x2ca4 <__divsf3>
     b34:	f1 01       	movw	r30, r2
     b36:	60 83       	st	Z, r22
     b38:	71 83       	std	Z+1, r23	; 0x01
     b3a:	82 83       	std	Z+2, r24	; 0x02
     b3c:	93 83       	std	Z+3, r25	; 0x03
		q[1] = -sqrt((-NormalizedAccel[2] + 1) / 2);
     b3e:	20 e0       	ldi	r18, 0x00	; 0
     b40:	30 e0       	ldi	r19, 0x00	; 0
     b42:	40 e0       	ldi	r20, 0x00	; 0
     b44:	5f e3       	ldi	r21, 0x3F	; 63
     b46:	c5 01       	movw	r24, r10
     b48:	b4 01       	movw	r22, r8
     b4a:	0e 94 7d 17 	call	0x2efa	; 0x2efa <__mulsf3>
     b4e:	0e 94 e4 17 	call	0x2fc8	; 0x2fc8 <sqrt>
     b52:	dc 01       	movw	r26, r24
     b54:	cb 01       	movw	r24, r22
     b56:	b0 58       	subi	r27, 0x80	; 128
     b58:	f1 01       	movw	r30, r2
     b5a:	84 83       	std	Z+4, r24	; 0x04
     b5c:	95 83       	std	Z+5, r25	; 0x05
     b5e:	a6 83       	std	Z+6, r26	; 0x06
     b60:	b7 83       	std	Z+7, r27	; 0x07
		q[2] = 0;
     b62:	10 86       	std	Z+8, r1	; 0x08
     b64:	11 86       	std	Z+9, r1	; 0x09
     b66:	12 86       	std	Z+10, r1	; 0x0a
     b68:	13 86       	std	Z+11, r1	; 0x0b
		q[3] = -NormalizedAccel[0] / sqrt(2 * (NormalizedAccel[2] + 1));
     b6a:	73 01       	movw	r14, r6
     b6c:	62 01       	movw	r12, r4
     b6e:	f7 fa       	bst	r15, 7
     b70:	f0 94       	com	r15
     b72:	f7 f8       	bld	r15, 7
     b74:	f0 94       	com	r15
     b76:	20 e0       	ldi	r18, 0x00	; 0
     b78:	30 e0       	ldi	r19, 0x00	; 0
     b7a:	40 e8       	ldi	r20, 0x80	; 128
     b7c:	5f e3       	ldi	r21, 0x3F	; 63
     b7e:	6d a1       	ldd	r22, Y+37	; 0x25
     b80:	7e a1       	ldd	r23, Y+38	; 0x26
     b82:	8f a1       	ldd	r24, Y+39	; 0x27
     b84:	98 a5       	ldd	r25, Y+40	; 0x28
     b86:	0e 94 ee 15 	call	0x2bdc	; 0x2bdc <__addsf3>
     b8a:	9b 01       	movw	r18, r22
     b8c:	ac 01       	movw	r20, r24
     b8e:	0e 94 ee 15 	call	0x2bdc	; 0x2bdc <__addsf3>
     b92:	0e 94 e4 17 	call	0x2fc8	; 0x2fc8 <sqrt>
     b96:	9b 01       	movw	r18, r22
     b98:	ac 01       	movw	r20, r24
     b9a:	c7 01       	movw	r24, r14
     b9c:	b6 01       	movw	r22, r12
     b9e:	0e 94 52 16 	call	0x2ca4	; 0x2ca4 <__divsf3>
     ba2:	f1 01       	movw	r30, r2
     ba4:	64 87       	std	Z+12, r22	; 0x0c
     ba6:	75 87       	std	Z+13, r23	; 0x0d
     ba8:	86 87       	std	Z+14, r24	; 0x0e
     baa:	97 87       	std	Z+15, r25	; 0x0f
	}

	Quaternion_rotate(q, NormalizedMag, PredictedMagneticfield);
     bac:	ae 01       	movw	r20, r28
     bae:	43 5f       	subi	r20, 0xF3	; 243
     bb0:	5f 4f       	sbci	r21, 0xFF	; 255
     bb2:	be 01       	movw	r22, r28
     bb4:	6f 5f       	subi	r22, 0xFF	; 255
     bb6:	7f 4f       	sbci	r23, 0xFF	; 255
     bb8:	c1 01       	movw	r24, r2
     bba:	88 da       	rcall	.-2800   	; 0xcc <Quaternion_rotate>
	Gamma = PredictedMagneticfield[0] * PredictedMagneticfield[0] + PredictedMagneticfield[1] * PredictedMagneticfield[1];
     bbc:	4d 84       	ldd	r4, Y+13	; 0x0d
     bbe:	5e 84       	ldd	r5, Y+14	; 0x0e
     bc0:	6f 84       	ldd	r6, Y+15	; 0x0f
     bc2:	78 88       	ldd	r7, Y+16	; 0x10
     bc4:	a3 01       	movw	r20, r6
     bc6:	92 01       	movw	r18, r4
     bc8:	c3 01       	movw	r24, r6
     bca:	b2 01       	movw	r22, r4
     bcc:	0e 94 7d 17 	call	0x2efa	; 0x2efa <__mulsf3>
     bd0:	6b 01       	movw	r12, r22
     bd2:	7c 01       	movw	r14, r24
     bd4:	89 88       	ldd	r8, Y+17	; 0x11
     bd6:	9a 88       	ldd	r9, Y+18	; 0x12
     bd8:	ab 88       	ldd	r10, Y+19	; 0x13
     bda:	bc 88       	ldd	r11, Y+20	; 0x14
     bdc:	a5 01       	movw	r20, r10
     bde:	94 01       	movw	r18, r8
     be0:	c5 01       	movw	r24, r10
     be2:	b4 01       	movw	r22, r8
     be4:	0e 94 7d 17 	call	0x2efa	; 0x2efa <__mulsf3>
     be8:	9b 01       	movw	r18, r22
     bea:	ac 01       	movw	r20, r24
     bec:	c7 01       	movw	r24, r14
     bee:	b6 01       	movw	r22, r12
     bf0:	0e 94 ee 15 	call	0x2bdc	; 0x2bdc <__addsf3>
     bf4:	6b 01       	movw	r12, r22
     bf6:	7c 01       	movw	r14, r24
	
	
	if (NormalizedMag[0] > 0)
     bf8:	69 81       	ldd	r22, Y+1	; 0x01
     bfa:	7a 81       	ldd	r23, Y+2	; 0x02
     bfc:	8b 81       	ldd	r24, Y+3	; 0x03
     bfe:	9c 81       	ldd	r25, Y+4	; 0x04
     c00:	20 e0       	ldi	r18, 0x00	; 0
     c02:	30 e0       	ldi	r19, 0x00	; 0
     c04:	a9 01       	movw	r20, r18
     c06:	0e 94 79 17 	call	0x2ef2	; 0x2ef2 <__gesf2>
     c0a:	18 16       	cp	r1, r24
     c0c:	0c f0       	brlt	.+2      	; 0xc10 <AHRS_Init+0x36c>
     c0e:	47 c0       	rjmp	.+142    	; 0xc9e <AHRS_Init+0x3fa>
	{
		q_delta[0] = sqrt(Gamma + PredictedMagneticfield[0] * sqrt(Gamma)) / sqrt(2 * Gamma);
     c10:	c7 01       	movw	r24, r14
     c12:	b6 01       	movw	r22, r12
     c14:	0e 94 e4 17 	call	0x2fc8	; 0x2fc8 <sqrt>
     c18:	9b 01       	movw	r18, r22
     c1a:	ac 01       	movw	r20, r24
     c1c:	c3 01       	movw	r24, r6
     c1e:	b2 01       	movw	r22, r4
     c20:	0e 94 7d 17 	call	0x2efa	; 0x2efa <__mulsf3>
     c24:	9b 01       	movw	r18, r22
     c26:	ac 01       	movw	r20, r24
     c28:	c7 01       	movw	r24, r14
     c2a:	b6 01       	movw	r22, r12
     c2c:	0e 94 ee 15 	call	0x2bdc	; 0x2bdc <__addsf3>
     c30:	2b 01       	movw	r4, r22
     c32:	3c 01       	movw	r6, r24
     c34:	0e 94 e4 17 	call	0x2fc8	; 0x2fc8 <sqrt>
     c38:	6d a3       	std	Y+37, r22	; 0x25
     c3a:	7e a3       	std	Y+38, r23	; 0x26
     c3c:	8f a3       	std	Y+39, r24	; 0x27
     c3e:	98 a7       	std	Y+40, r25	; 0x28
     c40:	a7 01       	movw	r20, r14
     c42:	96 01       	movw	r18, r12
     c44:	c7 01       	movw	r24, r14
     c46:	b6 01       	movw	r22, r12
     c48:	0e 94 ee 15 	call	0x2bdc	; 0x2bdc <__addsf3>
     c4c:	0e 94 e4 17 	call	0x2fc8	; 0x2fc8 <sqrt>
     c50:	9b 01       	movw	r18, r22
     c52:	ac 01       	movw	r20, r24
     c54:	6d a1       	ldd	r22, Y+37	; 0x25
     c56:	7e a1       	ldd	r23, Y+38	; 0x26
     c58:	8f a1       	ldd	r24, Y+39	; 0x27
     c5a:	98 a5       	ldd	r25, Y+40	; 0x28
     c5c:	0e 94 52 16 	call	0x2ca4	; 0x2ca4 <__divsf3>
     c60:	69 8f       	std	Y+25, r22	; 0x19
     c62:	7a 8f       	std	Y+26, r23	; 0x1a
     c64:	8b 8f       	std	Y+27, r24	; 0x1b
     c66:	9c 8f       	std	Y+28, r25	; 0x1c
		q_delta[1] = 0;
     c68:	1d 8e       	std	Y+29, r1	; 0x1d
     c6a:	1e 8e       	std	Y+30, r1	; 0x1e
     c6c:	1f 8e       	std	Y+31, r1	; 0x1f
     c6e:	18 a2       	std	Y+32, r1	; 0x20
		q_delta[2] = 0;
     c70:	19 a2       	std	Y+33, r1	; 0x21
     c72:	1a a2       	std	Y+34, r1	; 0x22
     c74:	1b a2       	std	Y+35, r1	; 0x23
     c76:	1c a2       	std	Y+36, r1	; 0x24
		q_delta[3] = PredictedMagneticfield[1] / sqrt(2 * (Gamma + PredictedMagneticfield[0] * sqrt(Gamma)));
     c78:	a3 01       	movw	r20, r6
     c7a:	92 01       	movw	r18, r4
     c7c:	c3 01       	movw	r24, r6
     c7e:	b2 01       	movw	r22, r4
     c80:	0e 94 ee 15 	call	0x2bdc	; 0x2bdc <__addsf3>
     c84:	0e 94 e4 17 	call	0x2fc8	; 0x2fc8 <sqrt>
     c88:	9b 01       	movw	r18, r22
     c8a:	ac 01       	movw	r20, r24
     c8c:	c5 01       	movw	r24, r10
     c8e:	b4 01       	movw	r22, r8
     c90:	0e 94 52 16 	call	0x2ca4	; 0x2ca4 <__divsf3>
     c94:	6d a3       	std	Y+37, r22	; 0x25
     c96:	7e a3       	std	Y+38, r23	; 0x26
     c98:	8f a3       	std	Y+39, r24	; 0x27
     c9a:	98 a7       	std	Y+40, r25	; 0x28
     c9c:	44 c0       	rjmp	.+136    	; 0xd26 <AHRS_Init+0x482>

	}
	else
	{
		q_delta[0] = PredictedMagneticfield[1] / sqrt(2 * (Gamma - PredictedMagneticfield[0] * sqrt(Gamma)));
     c9e:	c7 01       	movw	r24, r14
     ca0:	b6 01       	movw	r22, r12
     ca2:	0e 94 e4 17 	call	0x2fc8	; 0x2fc8 <sqrt>
     ca6:	9b 01       	movw	r18, r22
     ca8:	ac 01       	movw	r20, r24
     caa:	c3 01       	movw	r24, r6
     cac:	b2 01       	movw	r22, r4
     cae:	0e 94 7d 17 	call	0x2efa	; 0x2efa <__mulsf3>
     cb2:	9b 01       	movw	r18, r22
     cb4:	ac 01       	movw	r20, r24
     cb6:	c7 01       	movw	r24, r14
     cb8:	b6 01       	movw	r22, r12
     cba:	0e 94 ed 15 	call	0x2bda	; 0x2bda <__subsf3>
     cbe:	2b 01       	movw	r4, r22
     cc0:	3c 01       	movw	r6, r24
     cc2:	a3 01       	movw	r20, r6
     cc4:	92 01       	movw	r18, r4
     cc6:	c3 01       	movw	r24, r6
     cc8:	b2 01       	movw	r22, r4
     cca:	0e 94 ee 15 	call	0x2bdc	; 0x2bdc <__addsf3>
     cce:	0e 94 e4 17 	call	0x2fc8	; 0x2fc8 <sqrt>
     cd2:	9b 01       	movw	r18, r22
     cd4:	ac 01       	movw	r20, r24
     cd6:	c5 01       	movw	r24, r10
     cd8:	b4 01       	movw	r22, r8
     cda:	0e 94 52 16 	call	0x2ca4	; 0x2ca4 <__divsf3>
     cde:	69 8f       	std	Y+25, r22	; 0x19
     ce0:	7a 8f       	std	Y+26, r23	; 0x1a
     ce2:	8b 8f       	std	Y+27, r24	; 0x1b
     ce4:	9c 8f       	std	Y+28, r25	; 0x1c
		q_delta[1] = 0;
     ce6:	1d 8e       	std	Y+29, r1	; 0x1d
     ce8:	1e 8e       	std	Y+30, r1	; 0x1e
     cea:	1f 8e       	std	Y+31, r1	; 0x1f
     cec:	18 a2       	std	Y+32, r1	; 0x20
		q_delta[2] = 0;
     cee:	19 a2       	std	Y+33, r1	; 0x21
     cf0:	1a a2       	std	Y+34, r1	; 0x22
     cf2:	1b a2       	std	Y+35, r1	; 0x23
     cf4:	1c a2       	std	Y+36, r1	; 0x24
		q_delta[3] = sqrt(Gamma - PredictedMagneticfield[0] * sqrt(Gamma)) / sqrt(2 * Gamma);
     cf6:	c3 01       	movw	r24, r6
     cf8:	b2 01       	movw	r22, r4
     cfa:	0e 94 e4 17 	call	0x2fc8	; 0x2fc8 <sqrt>
     cfe:	4b 01       	movw	r8, r22
     d00:	5c 01       	movw	r10, r24
     d02:	a7 01       	movw	r20, r14
     d04:	96 01       	movw	r18, r12
     d06:	c7 01       	movw	r24, r14
     d08:	b6 01       	movw	r22, r12
     d0a:	0e 94 ee 15 	call	0x2bdc	; 0x2bdc <__addsf3>
     d0e:	0e 94 e4 17 	call	0x2fc8	; 0x2fc8 <sqrt>
     d12:	9b 01       	movw	r18, r22
     d14:	ac 01       	movw	r20, r24
     d16:	c5 01       	movw	r24, r10
     d18:	b4 01       	movw	r22, r8
     d1a:	0e 94 52 16 	call	0x2ca4	; 0x2ca4 <__divsf3>
     d1e:	6d a3       	std	Y+37, r22	; 0x25
     d20:	7e a3       	std	Y+38, r23	; 0x26
     d22:	8f a3       	std	Y+39, r24	; 0x27
     d24:	98 a7       	std	Y+40, r25	; 0x28
	}
	q[0] = -q[0];
     d26:	f1 01       	movw	r30, r2
     d28:	80 81       	ld	r24, Z
     d2a:	91 81       	ldd	r25, Z+1	; 0x01
     d2c:	a2 81       	ldd	r26, Z+2	; 0x02
     d2e:	b3 81       	ldd	r27, Z+3	; 0x03
     d30:	b0 58       	subi	r27, 0x80	; 128
     d32:	80 83       	st	Z, r24
     d34:	91 83       	std	Z+1, r25	; 0x01
     d36:	a2 83       	std	Z+2, r26	; 0x02
     d38:	b3 83       	std	Z+3, r27	; 0x03
	q[1] = -q[1];
     d3a:	84 81       	ldd	r24, Z+4	; 0x04
     d3c:	95 81       	ldd	r25, Z+5	; 0x05
     d3e:	a6 81       	ldd	r26, Z+6	; 0x06
     d40:	b7 81       	ldd	r27, Z+7	; 0x07
     d42:	b0 58       	subi	r27, 0x80	; 128
     d44:	84 83       	std	Z+4, r24	; 0x04
     d46:	95 83       	std	Z+5, r25	; 0x05
     d48:	a6 83       	std	Z+6, r26	; 0x06
     d4a:	b7 83       	std	Z+7, r27	; 0x07
	q[2] = -q[2];
     d4c:	80 85       	ldd	r24, Z+8	; 0x08
     d4e:	91 85       	ldd	r25, Z+9	; 0x09
     d50:	a2 85       	ldd	r26, Z+10	; 0x0a
     d52:	b3 85       	ldd	r27, Z+11	; 0x0b
     d54:	b0 58       	subi	r27, 0x80	; 128
     d56:	80 87       	std	Z+8, r24	; 0x08
     d58:	91 87       	std	Z+9, r25	; 0x09
     d5a:	a2 87       	std	Z+10, r26	; 0x0a
     d5c:	b3 87       	std	Z+11, r27	; 0x0b
	q[3] = -q[3];
     d5e:	84 85       	ldd	r24, Z+12	; 0x0c
     d60:	95 85       	ldd	r25, Z+13	; 0x0d
     d62:	a6 85       	ldd	r26, Z+14	; 0x0e
     d64:	b7 85       	ldd	r27, Z+15	; 0x0f
     d66:	b0 58       	subi	r27, 0x80	; 128
     d68:	84 87       	std	Z+12, r24	; 0x0c
     d6a:	95 87       	std	Z+13, r25	; 0x0d
     d6c:	a6 87       	std	Z+14, r26	; 0x0e
     d6e:	b7 87       	std	Z+15, r27	; 0x0f
	Quaternion_multiply(q, q_delta, q);
     d70:	a1 01       	movw	r20, r2
     d72:	be 01       	movw	r22, r28
     d74:	67 5e       	subi	r22, 0xE7	; 231
     d76:	7f 4f       	sbci	r23, 0xFF	; 255
     d78:	c1 01       	movw	r24, r2
     d7a:	58 dc       	rcall	.-1872   	; 0x62c <Quaternion_multiply>
}
     d7c:	e0 96       	adiw	r28, 0x30	; 48
     d7e:	0f b6       	in	r0, 0x3f	; 63
     d80:	f8 94       	cli
     d82:	de bf       	out	0x3e, r29	; 62
     d84:	0f be       	out	0x3f, r0	; 63
     d86:	cd bf       	out	0x3d, r28	; 61
     d88:	df 91       	pop	r29
     d8a:	cf 91       	pop	r28
     d8c:	1f 91       	pop	r17
     d8e:	0f 91       	pop	r16
     d90:	ff 90       	pop	r15
     d92:	ef 90       	pop	r14
     d94:	df 90       	pop	r13
     d96:	cf 90       	pop	r12
     d98:	bf 90       	pop	r11
     d9a:	af 90       	pop	r10
     d9c:	9f 90       	pop	r9
     d9e:	8f 90       	pop	r8
     da0:	7f 90       	pop	r7
     da2:	6f 90       	pop	r6
     da4:	5f 90       	pop	r5
     da6:	4f 90       	pop	r4
     da8:	3f 90       	pop	r3
     daa:	2f 90       	pop	r2
     dac:	08 95       	ret

00000dae <MadgwickQuaternionUpdate>:

void MadgwickQuaternionUpdate(float* q, float ax, float ay, float az, float gx, float gy, float gz, float mx, float my, float mz)
{	
     dae:	2f 92       	push	r2
     db0:	3f 92       	push	r3
     db2:	4f 92       	push	r4
     db4:	5f 92       	push	r5
     db6:	6f 92       	push	r6
     db8:	7f 92       	push	r7
     dba:	8f 92       	push	r8
     dbc:	9f 92       	push	r9
     dbe:	af 92       	push	r10
     dc0:	bf 92       	push	r11
     dc2:	cf 92       	push	r12
     dc4:	df 92       	push	r13
     dc6:	ef 92       	push	r14
     dc8:	ff 92       	push	r15
     dca:	0f 93       	push	r16
     dcc:	1f 93       	push	r17
     dce:	cf 93       	push	r28
     dd0:	df 93       	push	r29
     dd2:	cd b7       	in	r28, 0x3d	; 61
     dd4:	de b7       	in	r29, 0x3e	; 62
     dd6:	c8 57       	subi	r28, 0x78	; 120
     dd8:	d1 09       	sbc	r29, r1
     dda:	0f b6       	in	r0, 0x3f	; 63
     ddc:	f8 94       	cli
     dde:	de bf       	out	0x3e, r29	; 62
     de0:	0f be       	out	0x3f, r0	; 63
     de2:	cd bf       	out	0x3d, r28	; 61
     de4:	1c 01       	movw	r2, r24
     de6:	49 83       	std	Y+1, r20	; 0x01
     de8:	5a 83       	std	Y+2, r21	; 0x02
     dea:	6b 83       	std	Y+3, r22	; 0x03
     dec:	7c 83       	std	Y+4, r23	; 0x04
     dee:	09 87       	std	Y+9, r16	; 0x09
     df0:	1a 87       	std	Y+10, r17	; 0x0a
     df2:	2b 87       	std	Y+11, r18	; 0x0b
     df4:	3c 87       	std	Y+12, r19	; 0x0c
	float q1 = q[0], q2 = q[1], q3 = q[2], q4 = q[3];   // short name local variable for readability
     df6:	dc 01       	movw	r26, r24
     df8:	8d 91       	ld	r24, X+
     dfa:	9d 91       	ld	r25, X+
     dfc:	0d 90       	ld	r0, X+
     dfe:	bc 91       	ld	r27, X
     e00:	a0 2d       	mov	r26, r0
     e02:	8d 8f       	std	Y+29, r24	; 0x1d
     e04:	9e 8f       	std	Y+30, r25	; 0x1e
     e06:	af 8f       	std	Y+31, r26	; 0x1f
     e08:	b8 a3       	std	Y+32, r27	; 0x20
     e0a:	f1 01       	movw	r30, r2
     e0c:	44 80       	ldd	r4, Z+4	; 0x04
     e0e:	55 80       	ldd	r5, Z+5	; 0x05
     e10:	66 80       	ldd	r6, Z+6	; 0x06
     e12:	77 80       	ldd	r7, Z+7	; 0x07
     e14:	80 85       	ldd	r24, Z+8	; 0x08
     e16:	91 85       	ldd	r25, Z+9	; 0x09
     e18:	a2 85       	ldd	r26, Z+10	; 0x0a
     e1a:	b3 85       	ldd	r27, Z+11	; 0x0b
     e1c:	89 8b       	std	Y+17, r24	; 0x11
     e1e:	9a 8b       	std	Y+18, r25	; 0x12
     e20:	ab 8b       	std	Y+19, r26	; 0x13
     e22:	bc 8b       	std	Y+20, r27	; 0x14
     e24:	84 85       	ldd	r24, Z+12	; 0x0c
     e26:	95 85       	ldd	r25, Z+13	; 0x0d
     e28:	a6 85       	ldd	r26, Z+14	; 0x0e
     e2a:	b7 85       	ldd	r27, Z+15	; 0x0f
     e2c:	8d 83       	std	Y+5, r24	; 0x05
     e2e:	9e 83       	std	Y+6, r25	; 0x06
     e30:	af 83       	std	Y+7, r26	; 0x07
     e32:	b8 87       	std	Y+8, r27	; 0x08
	float _2q1my;
	float _2q1mz;
	float _2q2mx;
	float _4bx;
	float _4bz;
	float _2q1 = 2.0f * q1;
     e34:	2d 8d       	ldd	r18, Y+29	; 0x1d
     e36:	3e 8d       	ldd	r19, Y+30	; 0x1e
     e38:	4f 8d       	ldd	r20, Y+31	; 0x1f
     e3a:	58 a1       	ldd	r21, Y+32	; 0x20
     e3c:	ca 01       	movw	r24, r20
     e3e:	b9 01       	movw	r22, r18
     e40:	0e 94 ee 15 	call	0x2bdc	; 0x2bdc <__addsf3>
     e44:	6d a3       	std	Y+37, r22	; 0x25
     e46:	7e a3       	std	Y+38, r23	; 0x26
     e48:	8f a3       	std	Y+39, r24	; 0x27
     e4a:	98 a7       	std	Y+40, r25	; 0x28
	float _2q2 = 2.0f * q2;
     e4c:	a3 01       	movw	r20, r6
     e4e:	92 01       	movw	r18, r4
     e50:	c3 01       	movw	r24, r6
     e52:	b2 01       	movw	r22, r4
     e54:	0e 94 ee 15 	call	0x2bdc	; 0x2bdc <__addsf3>
     e58:	2d 96       	adiw	r28, 0x0d	; 13
     e5a:	6c af       	std	Y+60, r22	; 0x3c
     e5c:	7d af       	std	Y+61, r23	; 0x3d
     e5e:	8e af       	std	Y+62, r24	; 0x3e
     e60:	9f af       	std	Y+63, r25	; 0x3f
     e62:	2d 97       	sbiw	r28, 0x0d	; 13
	float _2q3 = 2.0f * q3;
     e64:	29 89       	ldd	r18, Y+17	; 0x11
     e66:	3a 89       	ldd	r19, Y+18	; 0x12
     e68:	4b 89       	ldd	r20, Y+19	; 0x13
     e6a:	5c 89       	ldd	r21, Y+20	; 0x14
     e6c:	ca 01       	movw	r24, r20
     e6e:	b9 01       	movw	r22, r18
     e70:	0e 94 ee 15 	call	0x2bdc	; 0x2bdc <__addsf3>
     e74:	61 96       	adiw	r28, 0x11	; 17
     e76:	6c af       	std	Y+60, r22	; 0x3c
     e78:	7d af       	std	Y+61, r23	; 0x3d
     e7a:	8e af       	std	Y+62, r24	; 0x3e
     e7c:	9f af       	std	Y+63, r25	; 0x3f
     e7e:	61 97       	sbiw	r28, 0x11	; 17
	float _2q4 = 2.0f * q4;
     e80:	2d 81       	ldd	r18, Y+5	; 0x05
     e82:	3e 81       	ldd	r19, Y+6	; 0x06
     e84:	4f 81       	ldd	r20, Y+7	; 0x07
     e86:	58 85       	ldd	r21, Y+8	; 0x08
     e88:	ca 01       	movw	r24, r20
     e8a:	b9 01       	movw	r22, r18
     e8c:	0e 94 ee 15 	call	0x2bdc	; 0x2bdc <__addsf3>
     e90:	a9 96       	adiw	r28, 0x29	; 41
     e92:	6c af       	std	Y+60, r22	; 0x3c
     e94:	7d af       	std	Y+61, r23	; 0x3d
     e96:	8e af       	std	Y+62, r24	; 0x3e
     e98:	9f af       	std	Y+63, r25	; 0x3f
     e9a:	a9 97       	sbiw	r28, 0x29	; 41
	float _2q1q3 = 2.0f * q1 * q3;
     e9c:	2d a1       	ldd	r18, Y+37	; 0x25
     e9e:	3e a1       	ldd	r19, Y+38	; 0x26
     ea0:	4f a1       	ldd	r20, Y+39	; 0x27
     ea2:	58 a5       	ldd	r21, Y+40	; 0x28
     ea4:	69 89       	ldd	r22, Y+17	; 0x11
     ea6:	7a 89       	ldd	r23, Y+18	; 0x12
     ea8:	8b 89       	ldd	r24, Y+19	; 0x13
     eaa:	9c 89       	ldd	r25, Y+20	; 0x14
     eac:	0e 94 7d 17 	call	0x2efa	; 0x2efa <__mulsf3>
     eb0:	a1 96       	adiw	r28, 0x21	; 33
     eb2:	6c af       	std	Y+60, r22	; 0x3c
     eb4:	7d af       	std	Y+61, r23	; 0x3d
     eb6:	8e af       	std	Y+62, r24	; 0x3e
     eb8:	9f af       	std	Y+63, r25	; 0x3f
     eba:	a1 97       	sbiw	r28, 0x21	; 33
	float _2q3q4 = 2.0f * q3 * q4;
     ebc:	61 96       	adiw	r28, 0x11	; 17
     ebe:	2c ad       	ldd	r18, Y+60	; 0x3c
     ec0:	3d ad       	ldd	r19, Y+61	; 0x3d
     ec2:	4e ad       	ldd	r20, Y+62	; 0x3e
     ec4:	5f ad       	ldd	r21, Y+63	; 0x3f
     ec6:	61 97       	sbiw	r28, 0x11	; 17
     ec8:	6d 81       	ldd	r22, Y+5	; 0x05
     eca:	7e 81       	ldd	r23, Y+6	; 0x06
     ecc:	8f 81       	ldd	r24, Y+7	; 0x07
     ece:	98 85       	ldd	r25, Y+8	; 0x08
     ed0:	0e 94 7d 17 	call	0x2efa	; 0x2efa <__mulsf3>
     ed4:	a5 96       	adiw	r28, 0x25	; 37
     ed6:	6c af       	std	Y+60, r22	; 0x3c
     ed8:	7d af       	std	Y+61, r23	; 0x3d
     eda:	8e af       	std	Y+62, r24	; 0x3e
     edc:	9f af       	std	Y+63, r25	; 0x3f
     ede:	a5 97       	sbiw	r28, 0x25	; 37
	float q1q1 = q1 * q1;
     ee0:	2d 8d       	ldd	r18, Y+29	; 0x1d
     ee2:	3e 8d       	ldd	r19, Y+30	; 0x1e
     ee4:	4f 8d       	ldd	r20, Y+31	; 0x1f
     ee6:	58 a1       	ldd	r21, Y+32	; 0x20
     ee8:	ca 01       	movw	r24, r20
     eea:	b9 01       	movw	r22, r18
     eec:	0e 94 7d 17 	call	0x2efa	; 0x2efa <__mulsf3>
     ef0:	69 af       	std	Y+57, r22	; 0x39
     ef2:	7a af       	std	Y+58, r23	; 0x3a
     ef4:	8b af       	std	Y+59, r24	; 0x3b
     ef6:	9c af       	std	Y+60, r25	; 0x3c
	float q1q2 = q1 * q2;
     ef8:	a3 01       	movw	r20, r6
     efa:	92 01       	movw	r18, r4
     efc:	6d 8d       	ldd	r22, Y+29	; 0x1d
     efe:	7e 8d       	ldd	r23, Y+30	; 0x1e
     f00:	8f 8d       	ldd	r24, Y+31	; 0x1f
     f02:	98 a1       	ldd	r25, Y+32	; 0x20
     f04:	0e 94 7d 17 	call	0x2efa	; 0x2efa <__mulsf3>
     f08:	21 96       	adiw	r28, 0x01	; 1
     f0a:	6c af       	std	Y+60, r22	; 0x3c
     f0c:	7d af       	std	Y+61, r23	; 0x3d
     f0e:	8e af       	std	Y+62, r24	; 0x3e
     f10:	9f af       	std	Y+63, r25	; 0x3f
     f12:	21 97       	sbiw	r28, 0x01	; 1
	float q1q3 = q1 * q3;
     f14:	29 89       	ldd	r18, Y+17	; 0x11
     f16:	3a 89       	ldd	r19, Y+18	; 0x12
     f18:	4b 89       	ldd	r20, Y+19	; 0x13
     f1a:	5c 89       	ldd	r21, Y+20	; 0x14
     f1c:	6d 8d       	ldd	r22, Y+29	; 0x1d
     f1e:	7e 8d       	ldd	r23, Y+30	; 0x1e
     f20:	8f 8d       	ldd	r24, Y+31	; 0x1f
     f22:	98 a1       	ldd	r25, Y+32	; 0x20
     f24:	0e 94 7d 17 	call	0x2efa	; 0x2efa <__mulsf3>
     f28:	29 96       	adiw	r28, 0x09	; 9
     f2a:	6c af       	std	Y+60, r22	; 0x3c
     f2c:	7d af       	std	Y+61, r23	; 0x3d
     f2e:	8e af       	std	Y+62, r24	; 0x3e
     f30:	9f af       	std	Y+63, r25	; 0x3f
     f32:	29 97       	sbiw	r28, 0x09	; 9
	float q1q4 = q1 * q4;
     f34:	2d 81       	ldd	r18, Y+5	; 0x05
     f36:	3e 81       	ldd	r19, Y+6	; 0x06
     f38:	4f 81       	ldd	r20, Y+7	; 0x07
     f3a:	58 85       	ldd	r21, Y+8	; 0x08
     f3c:	6d 8d       	ldd	r22, Y+29	; 0x1d
     f3e:	7e 8d       	ldd	r23, Y+30	; 0x1e
     f40:	8f 8d       	ldd	r24, Y+31	; 0x1f
     f42:	98 a1       	ldd	r25, Y+32	; 0x20
     f44:	0e 94 7d 17 	call	0x2efa	; 0x2efa <__mulsf3>
     f48:	65 96       	adiw	r28, 0x15	; 21
     f4a:	6c af       	std	Y+60, r22	; 0x3c
     f4c:	7d af       	std	Y+61, r23	; 0x3d
     f4e:	8e af       	std	Y+62, r24	; 0x3e
     f50:	9f af       	std	Y+63, r25	; 0x3f
     f52:	65 97       	sbiw	r28, 0x15	; 21
	float q2q2 = q2 * q2;
     f54:	a3 01       	movw	r20, r6
     f56:	92 01       	movw	r18, r4
     f58:	c3 01       	movw	r24, r6
     f5a:	b2 01       	movw	r22, r4
     f5c:	0e 94 7d 17 	call	0x2efa	; 0x2efa <__mulsf3>
     f60:	69 a7       	std	Y+41, r22	; 0x29
     f62:	7a a7       	std	Y+42, r23	; 0x2a
     f64:	8b a7       	std	Y+43, r24	; 0x2b
     f66:	9c a7       	std	Y+44, r25	; 0x2c
	float q2q3 = q2 * q3;
     f68:	29 89       	ldd	r18, Y+17	; 0x11
     f6a:	3a 89       	ldd	r19, Y+18	; 0x12
     f6c:	4b 89       	ldd	r20, Y+19	; 0x13
     f6e:	5c 89       	ldd	r21, Y+20	; 0x14
     f70:	c3 01       	movw	r24, r6
     f72:	b2 01       	movw	r22, r4
     f74:	0e 94 7d 17 	call	0x2efa	; 0x2efa <__mulsf3>
     f78:	ad 96       	adiw	r28, 0x2d	; 45
     f7a:	6c af       	std	Y+60, r22	; 0x3c
     f7c:	7d af       	std	Y+61, r23	; 0x3d
     f7e:	8e af       	std	Y+62, r24	; 0x3e
     f80:	9f af       	std	Y+63, r25	; 0x3f
     f82:	ad 97       	sbiw	r28, 0x2d	; 45
	float q2q4 = q2 * q4;
     f84:	2d 81       	ldd	r18, Y+5	; 0x05
     f86:	3e 81       	ldd	r19, Y+6	; 0x06
     f88:	4f 81       	ldd	r20, Y+7	; 0x07
     f8a:	58 85       	ldd	r21, Y+8	; 0x08
     f8c:	c3 01       	movw	r24, r6
     f8e:	b2 01       	movw	r22, r4
     f90:	0e 94 7d 17 	call	0x2efa	; 0x2efa <__mulsf3>
     f94:	69 ab       	std	Y+49, r22	; 0x31
     f96:	7a ab       	std	Y+50, r23	; 0x32
     f98:	8b ab       	std	Y+51, r24	; 0x33
     f9a:	9c ab       	std	Y+52, r25	; 0x34
	float q3q3 = q3 * q3;
     f9c:	29 89       	ldd	r18, Y+17	; 0x11
     f9e:	3a 89       	ldd	r19, Y+18	; 0x12
     fa0:	4b 89       	ldd	r20, Y+19	; 0x13
     fa2:	5c 89       	ldd	r21, Y+20	; 0x14
     fa4:	ca 01       	movw	r24, r20
     fa6:	b9 01       	movw	r22, r18
     fa8:	0e 94 7d 17 	call	0x2efa	; 0x2efa <__mulsf3>
     fac:	69 a3       	std	Y+33, r22	; 0x21
     fae:	7a a3       	std	Y+34, r23	; 0x22
     fb0:	8b a3       	std	Y+35, r24	; 0x23
     fb2:	9c a3       	std	Y+36, r25	; 0x24
	float q3q4 = q3 * q4;
     fb4:	2d 81       	ldd	r18, Y+5	; 0x05
     fb6:	3e 81       	ldd	r19, Y+6	; 0x06
     fb8:	4f 81       	ldd	r20, Y+7	; 0x07
     fba:	58 85       	ldd	r21, Y+8	; 0x08
     fbc:	69 89       	ldd	r22, Y+17	; 0x11
     fbe:	7a 89       	ldd	r23, Y+18	; 0x12
     fc0:	8b 89       	ldd	r24, Y+19	; 0x13
     fc2:	9c 89       	ldd	r25, Y+20	; 0x14
     fc4:	0e 94 7d 17 	call	0x2efa	; 0x2efa <__mulsf3>
     fc8:	e1 96       	adiw	r28, 0x31	; 49
     fca:	6c af       	std	Y+60, r22	; 0x3c
     fcc:	7d af       	std	Y+61, r23	; 0x3d
     fce:	8e af       	std	Y+62, r24	; 0x3e
     fd0:	9f af       	std	Y+63, r25	; 0x3f
     fd2:	e1 97       	sbiw	r28, 0x31	; 49
	float q4q4 = q4 * q4;
     fd4:	2d 81       	ldd	r18, Y+5	; 0x05
     fd6:	3e 81       	ldd	r19, Y+6	; 0x06
     fd8:	4f 81       	ldd	r20, Y+7	; 0x07
     fda:	58 85       	ldd	r21, Y+8	; 0x08
     fdc:	ca 01       	movw	r24, r20
     fde:	b9 01       	movw	r22, r18
     fe0:	0e 94 7d 17 	call	0x2efa	; 0x2efa <__mulsf3>
     fe4:	6d ab       	std	Y+53, r22	; 0x35
     fe6:	7e ab       	std	Y+54, r23	; 0x36
     fe8:	8f ab       	std	Y+55, r24	; 0x37
     fea:	98 af       	std	Y+56, r25	; 0x38

	// Normalise accelerometer measurement
	norm = 1.0f / sqrtf(ax * ax + ay * ay + az * az);
     fec:	29 81       	ldd	r18, Y+1	; 0x01
     fee:	3a 81       	ldd	r19, Y+2	; 0x02
     ff0:	4b 81       	ldd	r20, Y+3	; 0x03
     ff2:	5c 81       	ldd	r21, Y+4	; 0x04
     ff4:	ca 01       	movw	r24, r20
     ff6:	b9 01       	movw	r22, r18
     ff8:	0e 94 7d 17 	call	0x2efa	; 0x2efa <__mulsf3>
     ffc:	69 8f       	std	Y+25, r22	; 0x19
     ffe:	7a 8f       	std	Y+26, r23	; 0x1a
    1000:	8b 8f       	std	Y+27, r24	; 0x1b
    1002:	9c 8f       	std	Y+28, r25	; 0x1c
    1004:	29 85       	ldd	r18, Y+9	; 0x09
    1006:	3a 85       	ldd	r19, Y+10	; 0x0a
    1008:	4b 85       	ldd	r20, Y+11	; 0x0b
    100a:	5c 85       	ldd	r21, Y+12	; 0x0c
    100c:	ca 01       	movw	r24, r20
    100e:	b9 01       	movw	r22, r18
    1010:	0e 94 7d 17 	call	0x2efa	; 0x2efa <__mulsf3>
    1014:	9b 01       	movw	r18, r22
    1016:	ac 01       	movw	r20, r24
    1018:	69 8d       	ldd	r22, Y+25	; 0x19
    101a:	7a 8d       	ldd	r23, Y+26	; 0x1a
    101c:	8b 8d       	ldd	r24, Y+27	; 0x1b
    101e:	9c 8d       	ldd	r25, Y+28	; 0x1c
    1020:	0e 94 ee 15 	call	0x2bdc	; 0x2bdc <__addsf3>
    1024:	69 8f       	std	Y+25, r22	; 0x19
    1026:	7a 8f       	std	Y+26, r23	; 0x1a
    1028:	8b 8f       	std	Y+27, r24	; 0x1b
    102a:	9c 8f       	std	Y+28, r25	; 0x1c
    102c:	a7 01       	movw	r20, r14
    102e:	96 01       	movw	r18, r12
    1030:	c7 01       	movw	r24, r14
    1032:	b6 01       	movw	r22, r12
    1034:	0e 94 7d 17 	call	0x2efa	; 0x2efa <__mulsf3>
    1038:	25 96       	adiw	r28, 0x05	; 5
    103a:	6c af       	std	Y+60, r22	; 0x3c
    103c:	7d af       	std	Y+61, r23	; 0x3d
    103e:	8e af       	std	Y+62, r24	; 0x3e
    1040:	9f af       	std	Y+63, r25	; 0x3f
    1042:	25 97       	sbiw	r28, 0x05	; 5
    1044:	25 96       	adiw	r28, 0x05	; 5
    1046:	2c ad       	ldd	r18, Y+60	; 0x3c
    1048:	3d ad       	ldd	r19, Y+61	; 0x3d
    104a:	4e ad       	ldd	r20, Y+62	; 0x3e
    104c:	5f ad       	ldd	r21, Y+63	; 0x3f
    104e:	25 97       	sbiw	r28, 0x05	; 5
    1050:	69 8d       	ldd	r22, Y+25	; 0x19
    1052:	7a 8d       	ldd	r23, Y+26	; 0x1a
    1054:	8b 8d       	ldd	r24, Y+27	; 0x1b
    1056:	9c 8d       	ldd	r25, Y+28	; 0x1c
    1058:	0e 94 ee 15 	call	0x2bdc	; 0x2bdc <__addsf3>
    105c:	0e 94 e4 17 	call	0x2fc8	; 0x2fc8 <sqrt>
    1060:	9b 01       	movw	r18, r22
    1062:	ac 01       	movw	r20, r24
    1064:	60 e0       	ldi	r22, 0x00	; 0
    1066:	70 e0       	ldi	r23, 0x00	; 0
    1068:	80 e8       	ldi	r24, 0x80	; 128
    106a:	9f e3       	ldi	r25, 0x3F	; 63
    106c:	0e 94 52 16 	call	0x2ca4	; 0x2ca4 <__divsf3>
    1070:	69 8f       	std	Y+25, r22	; 0x19
    1072:	7a 8f       	std	Y+26, r23	; 0x1a
    1074:	8b 8f       	std	Y+27, r24	; 0x1b
    1076:	9c 8f       	std	Y+28, r25	; 0x1c
	ax *= norm;
    1078:	9b 01       	movw	r18, r22
    107a:	ac 01       	movw	r20, r24
    107c:	69 81       	ldd	r22, Y+1	; 0x01
    107e:	7a 81       	ldd	r23, Y+2	; 0x02
    1080:	8b 81       	ldd	r24, Y+3	; 0x03
    1082:	9c 81       	ldd	r25, Y+4	; 0x04
    1084:	0e 94 7d 17 	call	0x2efa	; 0x2efa <__mulsf3>
    1088:	69 96       	adiw	r28, 0x19	; 25
    108a:	6c af       	std	Y+60, r22	; 0x3c
    108c:	7d af       	std	Y+61, r23	; 0x3d
    108e:	8e af       	std	Y+62, r24	; 0x3e
    1090:	9f af       	std	Y+63, r25	; 0x3f
    1092:	69 97       	sbiw	r28, 0x19	; 25
	ay *= norm;
    1094:	29 8d       	ldd	r18, Y+25	; 0x19
    1096:	3a 8d       	ldd	r19, Y+26	; 0x1a
    1098:	4b 8d       	ldd	r20, Y+27	; 0x1b
    109a:	5c 8d       	ldd	r21, Y+28	; 0x1c
    109c:	69 85       	ldd	r22, Y+9	; 0x09
    109e:	7a 85       	ldd	r23, Y+10	; 0x0a
    10a0:	8b 85       	ldd	r24, Y+11	; 0x0b
    10a2:	9c 85       	ldd	r25, Y+12	; 0x0c
    10a4:	0e 94 7d 17 	call	0x2efa	; 0x2efa <__mulsf3>
    10a8:	e5 96       	adiw	r28, 0x35	; 53
    10aa:	6c af       	std	Y+60, r22	; 0x3c
    10ac:	7d af       	std	Y+61, r23	; 0x3d
    10ae:	8e af       	std	Y+62, r24	; 0x3e
    10b0:	9f af       	std	Y+63, r25	; 0x3f
    10b2:	e5 97       	sbiw	r28, 0x35	; 53
	az *= norm;
    10b4:	29 8d       	ldd	r18, Y+25	; 0x19
    10b6:	3a 8d       	ldd	r19, Y+26	; 0x1a
    10b8:	4b 8d       	ldd	r20, Y+27	; 0x1b
    10ba:	5c 8d       	ldd	r21, Y+28	; 0x1c
    10bc:	c7 01       	movw	r24, r14
    10be:	b6 01       	movw	r22, r12
    10c0:	0e 94 7d 17 	call	0x2efa	; 0x2efa <__mulsf3>
    10c4:	e9 96       	adiw	r28, 0x39	; 57
    10c6:	6c af       	std	Y+60, r22	; 0x3c
    10c8:	7d af       	std	Y+61, r23	; 0x3d
    10ca:	8e af       	std	Y+62, r24	; 0x3e
    10cc:	9f af       	std	Y+63, r25	; 0x3f
    10ce:	e9 97       	sbiw	r28, 0x39	; 57

	// Normalise magnetometer measurement
	norm = 1.0f / sqrtf(mx * mx + my * my + mz * mz);
    10d0:	cb 56       	subi	r28, 0x6B	; 107
    10d2:	df 4f       	sbci	r29, 0xFF	; 255
    10d4:	28 81       	ld	r18, Y
    10d6:	39 81       	ldd	r19, Y+1	; 0x01
    10d8:	4a 81       	ldd	r20, Y+2	; 0x02
    10da:	5b 81       	ldd	r21, Y+3	; 0x03
    10dc:	c5 59       	subi	r28, 0x95	; 149
    10de:	d0 40       	sbci	r29, 0x00	; 0
    10e0:	ca 01       	movw	r24, r20
    10e2:	b9 01       	movw	r22, r18
    10e4:	0e 94 7d 17 	call	0x2efa	; 0x2efa <__mulsf3>
    10e8:	6b 01       	movw	r12, r22
    10ea:	7c 01       	movw	r14, r24
    10ec:	c7 56       	subi	r28, 0x67	; 103
    10ee:	df 4f       	sbci	r29, 0xFF	; 255
    10f0:	28 81       	ld	r18, Y
    10f2:	39 81       	ldd	r19, Y+1	; 0x01
    10f4:	4a 81       	ldd	r20, Y+2	; 0x02
    10f6:	5b 81       	ldd	r21, Y+3	; 0x03
    10f8:	c9 59       	subi	r28, 0x99	; 153
    10fa:	d0 40       	sbci	r29, 0x00	; 0
    10fc:	ca 01       	movw	r24, r20
    10fe:	b9 01       	movw	r22, r18
    1100:	0e 94 7d 17 	call	0x2efa	; 0x2efa <__mulsf3>
    1104:	9b 01       	movw	r18, r22
    1106:	ac 01       	movw	r20, r24
    1108:	c7 01       	movw	r24, r14
    110a:	b6 01       	movw	r22, r12
    110c:	0e 94 ee 15 	call	0x2bdc	; 0x2bdc <__addsf3>
    1110:	6b 01       	movw	r12, r22
    1112:	7c 01       	movw	r14, r24
    1114:	c3 56       	subi	r28, 0x63	; 99
    1116:	df 4f       	sbci	r29, 0xFF	; 255
    1118:	28 81       	ld	r18, Y
    111a:	39 81       	ldd	r19, Y+1	; 0x01
    111c:	4a 81       	ldd	r20, Y+2	; 0x02
    111e:	5b 81       	ldd	r21, Y+3	; 0x03
    1120:	cd 59       	subi	r28, 0x9D	; 157
    1122:	d0 40       	sbci	r29, 0x00	; 0
    1124:	ca 01       	movw	r24, r20
    1126:	b9 01       	movw	r22, r18
    1128:	0e 94 7d 17 	call	0x2efa	; 0x2efa <__mulsf3>
    112c:	69 83       	std	Y+1, r22	; 0x01
    112e:	7a 83       	std	Y+2, r23	; 0x02
    1130:	8b 83       	std	Y+3, r24	; 0x03
    1132:	9c 83       	std	Y+4, r25	; 0x04
    1134:	29 81       	ldd	r18, Y+1	; 0x01
    1136:	3a 81       	ldd	r19, Y+2	; 0x02
    1138:	4b 81       	ldd	r20, Y+3	; 0x03
    113a:	5c 81       	ldd	r21, Y+4	; 0x04
    113c:	c7 01       	movw	r24, r14
    113e:	b6 01       	movw	r22, r12
    1140:	0e 94 ee 15 	call	0x2bdc	; 0x2bdc <__addsf3>
    1144:	0e 94 e4 17 	call	0x2fc8	; 0x2fc8 <sqrt>
    1148:	9b 01       	movw	r18, r22
    114a:	ac 01       	movw	r20, r24
    114c:	60 e0       	ldi	r22, 0x00	; 0
    114e:	70 e0       	ldi	r23, 0x00	; 0
    1150:	80 e8       	ldi	r24, 0x80	; 128
    1152:	9f e3       	ldi	r25, 0x3F	; 63
    1154:	0e 94 52 16 	call	0x2ca4	; 0x2ca4 <__divsf3>
    1158:	6b 01       	movw	r12, r22
    115a:	7c 01       	movw	r14, r24
	mx *= norm;
    115c:	9b 01       	movw	r18, r22
    115e:	ac 01       	movw	r20, r24
    1160:	cb 56       	subi	r28, 0x6B	; 107
    1162:	df 4f       	sbci	r29, 0xFF	; 255
    1164:	68 81       	ld	r22, Y
    1166:	79 81       	ldd	r23, Y+1	; 0x01
    1168:	8a 81       	ldd	r24, Y+2	; 0x02
    116a:	9b 81       	ldd	r25, Y+3	; 0x03
    116c:	c5 59       	subi	r28, 0x95	; 149
    116e:	d0 40       	sbci	r29, 0x00	; 0
    1170:	0e 94 7d 17 	call	0x2efa	; 0x2efa <__mulsf3>
    1174:	69 8f       	std	Y+25, r22	; 0x19
    1176:	7a 8f       	std	Y+26, r23	; 0x1a
    1178:	8b 8f       	std	Y+27, r24	; 0x1b
    117a:	9c 8f       	std	Y+28, r25	; 0x1c
	my *= norm;
    117c:	a7 01       	movw	r20, r14
    117e:	96 01       	movw	r18, r12
    1180:	c7 56       	subi	r28, 0x67	; 103
    1182:	df 4f       	sbci	r29, 0xFF	; 255
    1184:	68 81       	ld	r22, Y
    1186:	79 81       	ldd	r23, Y+1	; 0x01
    1188:	8a 81       	ldd	r24, Y+2	; 0x02
    118a:	9b 81       	ldd	r25, Y+3	; 0x03
    118c:	c9 59       	subi	r28, 0x99	; 153
    118e:	d0 40       	sbci	r29, 0x00	; 0
    1190:	0e 94 7d 17 	call	0x2efa	; 0x2efa <__mulsf3>
    1194:	6d 87       	std	Y+13, r22	; 0x0d
    1196:	7e 87       	std	Y+14, r23	; 0x0e
    1198:	8f 87       	std	Y+15, r24	; 0x0f
    119a:	98 8b       	std	Y+16, r25	; 0x10
	mz *= norm;
    119c:	a7 01       	movw	r20, r14
    119e:	96 01       	movw	r18, r12
    11a0:	c3 56       	subi	r28, 0x63	; 99
    11a2:	df 4f       	sbci	r29, 0xFF	; 255
    11a4:	68 81       	ld	r22, Y
    11a6:	79 81       	ldd	r23, Y+1	; 0x01
    11a8:	8a 81       	ldd	r24, Y+2	; 0x02
    11aa:	9b 81       	ldd	r25, Y+3	; 0x03
    11ac:	cd 59       	subi	r28, 0x9D	; 157
    11ae:	d0 40       	sbci	r29, 0x00	; 0
    11b0:	0e 94 7d 17 	call	0x2efa	; 0x2efa <__mulsf3>
    11b4:	6d 8b       	std	Y+21, r22	; 0x15
    11b6:	7e 8b       	std	Y+22, r23	; 0x16
    11b8:	8f 8b       	std	Y+23, r24	; 0x17
    11ba:	98 8f       	std	Y+24, r25	; 0x18

	// Reference direction of Earth's magnetic field
	_2q1mx = 2.0f * q1 * mx;
    11bc:	29 8d       	ldd	r18, Y+25	; 0x19
    11be:	3a 8d       	ldd	r19, Y+26	; 0x1a
    11c0:	4b 8d       	ldd	r20, Y+27	; 0x1b
    11c2:	5c 8d       	ldd	r21, Y+28	; 0x1c
    11c4:	6d a1       	ldd	r22, Y+37	; 0x25
    11c6:	7e a1       	ldd	r23, Y+38	; 0x26
    11c8:	8f a1       	ldd	r24, Y+39	; 0x27
    11ca:	98 a5       	ldd	r25, Y+40	; 0x28
    11cc:	0e 94 7d 17 	call	0x2efa	; 0x2efa <__mulsf3>
    11d0:	69 87       	std	Y+9, r22	; 0x09
    11d2:	7a 87       	std	Y+10, r23	; 0x0a
    11d4:	8b 87       	std	Y+11, r24	; 0x0b
    11d6:	9c 87       	std	Y+12, r25	; 0x0c
	_2q1my = 2.0f * q1 * my;
    11d8:	2d 85       	ldd	r18, Y+13	; 0x0d
    11da:	3e 85       	ldd	r19, Y+14	; 0x0e
    11dc:	4f 85       	ldd	r20, Y+15	; 0x0f
    11de:	58 89       	ldd	r21, Y+16	; 0x10
    11e0:	6d a1       	ldd	r22, Y+37	; 0x25
    11e2:	7e a1       	ldd	r23, Y+38	; 0x26
    11e4:	8f a1       	ldd	r24, Y+39	; 0x27
    11e6:	98 a5       	ldd	r25, Y+40	; 0x28
    11e8:	0e 94 7d 17 	call	0x2efa	; 0x2efa <__mulsf3>
    11ec:	6d a7       	std	Y+45, r22	; 0x2d
    11ee:	7e a7       	std	Y+46, r23	; 0x2e
    11f0:	8f a7       	std	Y+47, r24	; 0x2f
    11f2:	98 ab       	std	Y+48, r25	; 0x30
	_2q1mz = 2.0f * q1 * mz;
    11f4:	2d 89       	ldd	r18, Y+21	; 0x15
    11f6:	3e 89       	ldd	r19, Y+22	; 0x16
    11f8:	4f 89       	ldd	r20, Y+23	; 0x17
    11fa:	58 8d       	ldd	r21, Y+24	; 0x18
    11fc:	6d a1       	ldd	r22, Y+37	; 0x25
    11fe:	7e a1       	ldd	r23, Y+38	; 0x26
    1200:	8f a1       	ldd	r24, Y+39	; 0x27
    1202:	98 a5       	ldd	r25, Y+40	; 0x28
    1204:	0e 94 7d 17 	call	0x2efa	; 0x2efa <__mulsf3>
    1208:	69 83       	std	Y+1, r22	; 0x01
    120a:	7a 83       	std	Y+2, r23	; 0x02
    120c:	8b 83       	std	Y+3, r24	; 0x03
    120e:	9c 83       	std	Y+4, r25	; 0x04
	_2q2mx = 2.0f * q2 * mx;
    1210:	29 8d       	ldd	r18, Y+25	; 0x19
    1212:	3a 8d       	ldd	r19, Y+26	; 0x1a
    1214:	4b 8d       	ldd	r20, Y+27	; 0x1b
    1216:	5c 8d       	ldd	r21, Y+28	; 0x1c
    1218:	2d 96       	adiw	r28, 0x0d	; 13
    121a:	6c ad       	ldd	r22, Y+60	; 0x3c
    121c:	7d ad       	ldd	r23, Y+61	; 0x3d
    121e:	8e ad       	ldd	r24, Y+62	; 0x3e
    1220:	9f ad       	ldd	r25, Y+63	; 0x3f
    1222:	2d 97       	sbiw	r28, 0x0d	; 13
    1224:	0e 94 7d 17 	call	0x2efa	; 0x2efa <__mulsf3>
    1228:	25 96       	adiw	r28, 0x05	; 5
    122a:	6c af       	std	Y+60, r22	; 0x3c
    122c:	7d af       	std	Y+61, r23	; 0x3d
    122e:	8e af       	std	Y+62, r24	; 0x3e
    1230:	9f af       	std	Y+63, r25	; 0x3f
    1232:	25 97       	sbiw	r28, 0x05	; 5
	hx = mx * q1q1 - _2q1my * q4 + _2q1mz * q3 + mx * q2q2 + _2q2 * my * q3 + _2q2 * mz * q4 - mx * q3q3 - mx * q4q4;
    1234:	29 8d       	ldd	r18, Y+25	; 0x19
    1236:	3a 8d       	ldd	r19, Y+26	; 0x1a
    1238:	4b 8d       	ldd	r20, Y+27	; 0x1b
    123a:	5c 8d       	ldd	r21, Y+28	; 0x1c
    123c:	69 ad       	ldd	r22, Y+57	; 0x39
    123e:	7a ad       	ldd	r23, Y+58	; 0x3a
    1240:	8b ad       	ldd	r24, Y+59	; 0x3b
    1242:	9c ad       	ldd	r25, Y+60	; 0x3c
    1244:	0e 94 7d 17 	call	0x2efa	; 0x2efa <__mulsf3>
    1248:	6b 01       	movw	r12, r22
    124a:	7c 01       	movw	r14, r24
    124c:	2d a5       	ldd	r18, Y+45	; 0x2d
    124e:	3e a5       	ldd	r19, Y+46	; 0x2e
    1250:	4f a5       	ldd	r20, Y+47	; 0x2f
    1252:	58 a9       	ldd	r21, Y+48	; 0x30
    1254:	6d 81       	ldd	r22, Y+5	; 0x05
    1256:	7e 81       	ldd	r23, Y+6	; 0x06
    1258:	8f 81       	ldd	r24, Y+7	; 0x07
    125a:	98 85       	ldd	r25, Y+8	; 0x08
    125c:	0e 94 7d 17 	call	0x2efa	; 0x2efa <__mulsf3>
    1260:	9b 01       	movw	r18, r22
    1262:	ac 01       	movw	r20, r24
    1264:	c7 01       	movw	r24, r14
    1266:	b6 01       	movw	r22, r12
    1268:	0e 94 ed 15 	call	0x2bda	; 0x2bda <__subsf3>
    126c:	6b 01       	movw	r12, r22
    126e:	7c 01       	movw	r14, r24
    1270:	29 81       	ldd	r18, Y+1	; 0x01
    1272:	3a 81       	ldd	r19, Y+2	; 0x02
    1274:	4b 81       	ldd	r20, Y+3	; 0x03
    1276:	5c 81       	ldd	r21, Y+4	; 0x04
    1278:	69 89       	ldd	r22, Y+17	; 0x11
    127a:	7a 89       	ldd	r23, Y+18	; 0x12
    127c:	8b 89       	ldd	r24, Y+19	; 0x13
    127e:	9c 89       	ldd	r25, Y+20	; 0x14
    1280:	0e 94 7d 17 	call	0x2efa	; 0x2efa <__mulsf3>
    1284:	9b 01       	movw	r18, r22
    1286:	ac 01       	movw	r20, r24
    1288:	c7 01       	movw	r24, r14
    128a:	b6 01       	movw	r22, r12
    128c:	0e 94 ee 15 	call	0x2bdc	; 0x2bdc <__addsf3>
    1290:	6b 01       	movw	r12, r22
    1292:	7c 01       	movw	r14, r24
    1294:	29 8d       	ldd	r18, Y+25	; 0x19
    1296:	3a 8d       	ldd	r19, Y+26	; 0x1a
    1298:	4b 8d       	ldd	r20, Y+27	; 0x1b
    129a:	5c 8d       	ldd	r21, Y+28	; 0x1c
    129c:	69 a5       	ldd	r22, Y+41	; 0x29
    129e:	7a a5       	ldd	r23, Y+42	; 0x2a
    12a0:	8b a5       	ldd	r24, Y+43	; 0x2b
    12a2:	9c a5       	ldd	r25, Y+44	; 0x2c
    12a4:	0e 94 7d 17 	call	0x2efa	; 0x2efa <__mulsf3>
    12a8:	9b 01       	movw	r18, r22
    12aa:	ac 01       	movw	r20, r24
    12ac:	c7 01       	movw	r24, r14
    12ae:	b6 01       	movw	r22, r12
    12b0:	0e 94 ee 15 	call	0x2bdc	; 0x2bdc <__addsf3>
    12b4:	6b 01       	movw	r12, r22
    12b6:	7c 01       	movw	r14, r24
    12b8:	2d 85       	ldd	r18, Y+13	; 0x0d
    12ba:	3e 85       	ldd	r19, Y+14	; 0x0e
    12bc:	4f 85       	ldd	r20, Y+15	; 0x0f
    12be:	58 89       	ldd	r21, Y+16	; 0x10
    12c0:	2d 96       	adiw	r28, 0x0d	; 13
    12c2:	6c ad       	ldd	r22, Y+60	; 0x3c
    12c4:	7d ad       	ldd	r23, Y+61	; 0x3d
    12c6:	8e ad       	ldd	r24, Y+62	; 0x3e
    12c8:	9f ad       	ldd	r25, Y+63	; 0x3f
    12ca:	2d 97       	sbiw	r28, 0x0d	; 13
    12cc:	0e 94 7d 17 	call	0x2efa	; 0x2efa <__mulsf3>
    12d0:	9b 01       	movw	r18, r22
    12d2:	ac 01       	movw	r20, r24
    12d4:	69 89       	ldd	r22, Y+17	; 0x11
    12d6:	7a 89       	ldd	r23, Y+18	; 0x12
    12d8:	8b 89       	ldd	r24, Y+19	; 0x13
    12da:	9c 89       	ldd	r25, Y+20	; 0x14
    12dc:	0e 94 7d 17 	call	0x2efa	; 0x2efa <__mulsf3>
    12e0:	9b 01       	movw	r18, r22
    12e2:	ac 01       	movw	r20, r24
    12e4:	c7 01       	movw	r24, r14
    12e6:	b6 01       	movw	r22, r12
    12e8:	0e 94 ee 15 	call	0x2bdc	; 0x2bdc <__addsf3>
    12ec:	6b 01       	movw	r12, r22
    12ee:	7c 01       	movw	r14, r24
    12f0:	2d 89       	ldd	r18, Y+21	; 0x15
    12f2:	3e 89       	ldd	r19, Y+22	; 0x16
    12f4:	4f 89       	ldd	r20, Y+23	; 0x17
    12f6:	58 8d       	ldd	r21, Y+24	; 0x18
    12f8:	2d 96       	adiw	r28, 0x0d	; 13
    12fa:	6c ad       	ldd	r22, Y+60	; 0x3c
    12fc:	7d ad       	ldd	r23, Y+61	; 0x3d
    12fe:	8e ad       	ldd	r24, Y+62	; 0x3e
    1300:	9f ad       	ldd	r25, Y+63	; 0x3f
    1302:	2d 97       	sbiw	r28, 0x0d	; 13
    1304:	0e 94 7d 17 	call	0x2efa	; 0x2efa <__mulsf3>
    1308:	9b 01       	movw	r18, r22
    130a:	ac 01       	movw	r20, r24
    130c:	6d 81       	ldd	r22, Y+5	; 0x05
    130e:	7e 81       	ldd	r23, Y+6	; 0x06
    1310:	8f 81       	ldd	r24, Y+7	; 0x07
    1312:	98 85       	ldd	r25, Y+8	; 0x08
    1314:	0e 94 7d 17 	call	0x2efa	; 0x2efa <__mulsf3>
    1318:	9b 01       	movw	r18, r22
    131a:	ac 01       	movw	r20, r24
    131c:	c7 01       	movw	r24, r14
    131e:	b6 01       	movw	r22, r12
    1320:	0e 94 ee 15 	call	0x2bdc	; 0x2bdc <__addsf3>
    1324:	6b 01       	movw	r12, r22
    1326:	7c 01       	movw	r14, r24
    1328:	29 8d       	ldd	r18, Y+25	; 0x19
    132a:	3a 8d       	ldd	r19, Y+26	; 0x1a
    132c:	4b 8d       	ldd	r20, Y+27	; 0x1b
    132e:	5c 8d       	ldd	r21, Y+28	; 0x1c
    1330:	69 a1       	ldd	r22, Y+33	; 0x21
    1332:	7a a1       	ldd	r23, Y+34	; 0x22
    1334:	8b a1       	ldd	r24, Y+35	; 0x23
    1336:	9c a1       	ldd	r25, Y+36	; 0x24
    1338:	0e 94 7d 17 	call	0x2efa	; 0x2efa <__mulsf3>
    133c:	9b 01       	movw	r18, r22
    133e:	ac 01       	movw	r20, r24
    1340:	c7 01       	movw	r24, r14
    1342:	b6 01       	movw	r22, r12
    1344:	0e 94 ed 15 	call	0x2bda	; 0x2bda <__subsf3>
    1348:	6b 01       	movw	r12, r22
    134a:	7c 01       	movw	r14, r24
    134c:	29 8d       	ldd	r18, Y+25	; 0x19
    134e:	3a 8d       	ldd	r19, Y+26	; 0x1a
    1350:	4b 8d       	ldd	r20, Y+27	; 0x1b
    1352:	5c 8d       	ldd	r21, Y+28	; 0x1c
    1354:	6d a9       	ldd	r22, Y+53	; 0x35
    1356:	7e a9       	ldd	r23, Y+54	; 0x36
    1358:	8f a9       	ldd	r24, Y+55	; 0x37
    135a:	98 ad       	ldd	r25, Y+56	; 0x38
    135c:	0e 94 7d 17 	call	0x2efa	; 0x2efa <__mulsf3>
    1360:	9b 01       	movw	r18, r22
    1362:	ac 01       	movw	r20, r24
    1364:	c7 01       	movw	r24, r14
    1366:	b6 01       	movw	r22, r12
    1368:	0e 94 ed 15 	call	0x2bda	; 0x2bda <__subsf3>
    136c:	6b 01       	movw	r12, r22
    136e:	7c 01       	movw	r14, r24
	hy = _2q1mx * q4 + my * q1q1 - _2q1mz * q2 + _2q2mx * q3 - my * q2q2 + my * q3q3 + _2q3 * mz * q4 - my * q4q4;
    1370:	29 85       	ldd	r18, Y+9	; 0x09
    1372:	3a 85       	ldd	r19, Y+10	; 0x0a
    1374:	4b 85       	ldd	r20, Y+11	; 0x0b
    1376:	5c 85       	ldd	r21, Y+12	; 0x0c
    1378:	6d 81       	ldd	r22, Y+5	; 0x05
    137a:	7e 81       	ldd	r23, Y+6	; 0x06
    137c:	8f 81       	ldd	r24, Y+7	; 0x07
    137e:	98 85       	ldd	r25, Y+8	; 0x08
    1380:	0e 94 7d 17 	call	0x2efa	; 0x2efa <__mulsf3>
    1384:	6d 96       	adiw	r28, 0x1d	; 29
    1386:	6c af       	std	Y+60, r22	; 0x3c
    1388:	7d af       	std	Y+61, r23	; 0x3d
    138a:	8e af       	std	Y+62, r24	; 0x3e
    138c:	9f af       	std	Y+63, r25	; 0x3f
    138e:	6d 97       	sbiw	r28, 0x1d	; 29
    1390:	2d 85       	ldd	r18, Y+13	; 0x0d
    1392:	3e 85       	ldd	r19, Y+14	; 0x0e
    1394:	4f 85       	ldd	r20, Y+15	; 0x0f
    1396:	58 89       	ldd	r21, Y+16	; 0x10
    1398:	69 ad       	ldd	r22, Y+57	; 0x39
    139a:	7a ad       	ldd	r23, Y+58	; 0x3a
    139c:	8b ad       	ldd	r24, Y+59	; 0x3b
    139e:	9c ad       	ldd	r25, Y+60	; 0x3c
    13a0:	0e 94 7d 17 	call	0x2efa	; 0x2efa <__mulsf3>
    13a4:	9b 01       	movw	r18, r22
    13a6:	ac 01       	movw	r20, r24
    13a8:	6d 96       	adiw	r28, 0x1d	; 29
    13aa:	6c ad       	ldd	r22, Y+60	; 0x3c
    13ac:	7d ad       	ldd	r23, Y+61	; 0x3d
    13ae:	8e ad       	ldd	r24, Y+62	; 0x3e
    13b0:	9f ad       	ldd	r25, Y+63	; 0x3f
    13b2:	6d 97       	sbiw	r28, 0x1d	; 29
    13b4:	0e 94 ee 15 	call	0x2bdc	; 0x2bdc <__addsf3>
    13b8:	6d 96       	adiw	r28, 0x1d	; 29
    13ba:	6c af       	std	Y+60, r22	; 0x3c
    13bc:	7d af       	std	Y+61, r23	; 0x3d
    13be:	8e af       	std	Y+62, r24	; 0x3e
    13c0:	9f af       	std	Y+63, r25	; 0x3f
    13c2:	6d 97       	sbiw	r28, 0x1d	; 29
    13c4:	29 81       	ldd	r18, Y+1	; 0x01
    13c6:	3a 81       	ldd	r19, Y+2	; 0x02
    13c8:	4b 81       	ldd	r20, Y+3	; 0x03
    13ca:	5c 81       	ldd	r21, Y+4	; 0x04
    13cc:	c3 01       	movw	r24, r6
    13ce:	b2 01       	movw	r22, r4
    13d0:	0e 94 7d 17 	call	0x2efa	; 0x2efa <__mulsf3>
    13d4:	9b 01       	movw	r18, r22
    13d6:	ac 01       	movw	r20, r24
    13d8:	6d 96       	adiw	r28, 0x1d	; 29
    13da:	6c ad       	ldd	r22, Y+60	; 0x3c
    13dc:	7d ad       	ldd	r23, Y+61	; 0x3d
    13de:	8e ad       	ldd	r24, Y+62	; 0x3e
    13e0:	9f ad       	ldd	r25, Y+63	; 0x3f
    13e2:	6d 97       	sbiw	r28, 0x1d	; 29
    13e4:	0e 94 ed 15 	call	0x2bda	; 0x2bda <__subsf3>
    13e8:	69 83       	std	Y+1, r22	; 0x01
    13ea:	7a 83       	std	Y+2, r23	; 0x02
    13ec:	8b 83       	std	Y+3, r24	; 0x03
    13ee:	9c 83       	std	Y+4, r25	; 0x04
    13f0:	25 96       	adiw	r28, 0x05	; 5
    13f2:	2c ad       	ldd	r18, Y+60	; 0x3c
    13f4:	3d ad       	ldd	r19, Y+61	; 0x3d
    13f6:	4e ad       	ldd	r20, Y+62	; 0x3e
    13f8:	5f ad       	ldd	r21, Y+63	; 0x3f
    13fa:	25 97       	sbiw	r28, 0x05	; 5
    13fc:	69 89       	ldd	r22, Y+17	; 0x11
    13fe:	7a 89       	ldd	r23, Y+18	; 0x12
    1400:	8b 89       	ldd	r24, Y+19	; 0x13
    1402:	9c 89       	ldd	r25, Y+20	; 0x14
    1404:	0e 94 7d 17 	call	0x2efa	; 0x2efa <__mulsf3>
    1408:	9b 01       	movw	r18, r22
    140a:	ac 01       	movw	r20, r24
    140c:	69 81       	ldd	r22, Y+1	; 0x01
    140e:	7a 81       	ldd	r23, Y+2	; 0x02
    1410:	8b 81       	ldd	r24, Y+3	; 0x03
    1412:	9c 81       	ldd	r25, Y+4	; 0x04
    1414:	0e 94 ee 15 	call	0x2bdc	; 0x2bdc <__addsf3>
    1418:	69 83       	std	Y+1, r22	; 0x01
    141a:	7a 83       	std	Y+2, r23	; 0x02
    141c:	8b 83       	std	Y+3, r24	; 0x03
    141e:	9c 83       	std	Y+4, r25	; 0x04
    1420:	2d 85       	ldd	r18, Y+13	; 0x0d
    1422:	3e 85       	ldd	r19, Y+14	; 0x0e
    1424:	4f 85       	ldd	r20, Y+15	; 0x0f
    1426:	58 89       	ldd	r21, Y+16	; 0x10
    1428:	69 a5       	ldd	r22, Y+41	; 0x29
    142a:	7a a5       	ldd	r23, Y+42	; 0x2a
    142c:	8b a5       	ldd	r24, Y+43	; 0x2b
    142e:	9c a5       	ldd	r25, Y+44	; 0x2c
    1430:	0e 94 7d 17 	call	0x2efa	; 0x2efa <__mulsf3>
    1434:	9b 01       	movw	r18, r22
    1436:	ac 01       	movw	r20, r24
    1438:	69 81       	ldd	r22, Y+1	; 0x01
    143a:	7a 81       	ldd	r23, Y+2	; 0x02
    143c:	8b 81       	ldd	r24, Y+3	; 0x03
    143e:	9c 81       	ldd	r25, Y+4	; 0x04
    1440:	0e 94 ed 15 	call	0x2bda	; 0x2bda <__subsf3>
    1444:	69 83       	std	Y+1, r22	; 0x01
    1446:	7a 83       	std	Y+2, r23	; 0x02
    1448:	8b 83       	std	Y+3, r24	; 0x03
    144a:	9c 83       	std	Y+4, r25	; 0x04
    144c:	2d 85       	ldd	r18, Y+13	; 0x0d
    144e:	3e 85       	ldd	r19, Y+14	; 0x0e
    1450:	4f 85       	ldd	r20, Y+15	; 0x0f
    1452:	58 89       	ldd	r21, Y+16	; 0x10
    1454:	69 a1       	ldd	r22, Y+33	; 0x21
    1456:	7a a1       	ldd	r23, Y+34	; 0x22
    1458:	8b a1       	ldd	r24, Y+35	; 0x23
    145a:	9c a1       	ldd	r25, Y+36	; 0x24
    145c:	0e 94 7d 17 	call	0x2efa	; 0x2efa <__mulsf3>
    1460:	9b 01       	movw	r18, r22
    1462:	ac 01       	movw	r20, r24
    1464:	69 81       	ldd	r22, Y+1	; 0x01
    1466:	7a 81       	ldd	r23, Y+2	; 0x02
    1468:	8b 81       	ldd	r24, Y+3	; 0x03
    146a:	9c 81       	ldd	r25, Y+4	; 0x04
    146c:	0e 94 ee 15 	call	0x2bdc	; 0x2bdc <__addsf3>
    1470:	69 83       	std	Y+1, r22	; 0x01
    1472:	7a 83       	std	Y+2, r23	; 0x02
    1474:	8b 83       	std	Y+3, r24	; 0x03
    1476:	9c 83       	std	Y+4, r25	; 0x04
    1478:	2d 89       	ldd	r18, Y+21	; 0x15
    147a:	3e 89       	ldd	r19, Y+22	; 0x16
    147c:	4f 89       	ldd	r20, Y+23	; 0x17
    147e:	58 8d       	ldd	r21, Y+24	; 0x18
    1480:	61 96       	adiw	r28, 0x11	; 17
    1482:	6c ad       	ldd	r22, Y+60	; 0x3c
    1484:	7d ad       	ldd	r23, Y+61	; 0x3d
    1486:	8e ad       	ldd	r24, Y+62	; 0x3e
    1488:	9f ad       	ldd	r25, Y+63	; 0x3f
    148a:	61 97       	sbiw	r28, 0x11	; 17
    148c:	0e 94 7d 17 	call	0x2efa	; 0x2efa <__mulsf3>
    1490:	9b 01       	movw	r18, r22
    1492:	ac 01       	movw	r20, r24
    1494:	6d 81       	ldd	r22, Y+5	; 0x05
    1496:	7e 81       	ldd	r23, Y+6	; 0x06
    1498:	8f 81       	ldd	r24, Y+7	; 0x07
    149a:	98 85       	ldd	r25, Y+8	; 0x08
    149c:	0e 94 7d 17 	call	0x2efa	; 0x2efa <__mulsf3>
    14a0:	9b 01       	movw	r18, r22
    14a2:	ac 01       	movw	r20, r24
    14a4:	69 81       	ldd	r22, Y+1	; 0x01
    14a6:	7a 81       	ldd	r23, Y+2	; 0x02
    14a8:	8b 81       	ldd	r24, Y+3	; 0x03
    14aa:	9c 81       	ldd	r25, Y+4	; 0x04
    14ac:	0e 94 ee 15 	call	0x2bdc	; 0x2bdc <__addsf3>
    14b0:	69 83       	std	Y+1, r22	; 0x01
    14b2:	7a 83       	std	Y+2, r23	; 0x02
    14b4:	8b 83       	std	Y+3, r24	; 0x03
    14b6:	9c 83       	std	Y+4, r25	; 0x04
    14b8:	2d 85       	ldd	r18, Y+13	; 0x0d
    14ba:	3e 85       	ldd	r19, Y+14	; 0x0e
    14bc:	4f 85       	ldd	r20, Y+15	; 0x0f
    14be:	58 89       	ldd	r21, Y+16	; 0x10
    14c0:	6d a9       	ldd	r22, Y+53	; 0x35
    14c2:	7e a9       	ldd	r23, Y+54	; 0x36
    14c4:	8f a9       	ldd	r24, Y+55	; 0x37
    14c6:	98 ad       	ldd	r25, Y+56	; 0x38
    14c8:	0e 94 7d 17 	call	0x2efa	; 0x2efa <__mulsf3>
    14cc:	9b 01       	movw	r18, r22
    14ce:	ac 01       	movw	r20, r24
    14d0:	69 81       	ldd	r22, Y+1	; 0x01
    14d2:	7a 81       	ldd	r23, Y+2	; 0x02
    14d4:	8b 81       	ldd	r24, Y+3	; 0x03
    14d6:	9c 81       	ldd	r25, Y+4	; 0x04
    14d8:	0e 94 ed 15 	call	0x2bda	; 0x2bda <__subsf3>
    14dc:	69 83       	std	Y+1, r22	; 0x01
    14de:	7a 83       	std	Y+2, r23	; 0x02
    14e0:	8b 83       	std	Y+3, r24	; 0x03
    14e2:	9c 83       	std	Y+4, r25	; 0x04
	_2bx = sqrtf(hx * hx + hy * hy);
    14e4:	a7 01       	movw	r20, r14
    14e6:	96 01       	movw	r18, r12
    14e8:	c7 01       	movw	r24, r14
    14ea:	b6 01       	movw	r22, r12
    14ec:	0e 94 7d 17 	call	0x2efa	; 0x2efa <__mulsf3>
    14f0:	6b 01       	movw	r12, r22
    14f2:	7c 01       	movw	r14, r24
    14f4:	29 81       	ldd	r18, Y+1	; 0x01
    14f6:	3a 81       	ldd	r19, Y+2	; 0x02
    14f8:	4b 81       	ldd	r20, Y+3	; 0x03
    14fa:	5c 81       	ldd	r21, Y+4	; 0x04
    14fc:	ca 01       	movw	r24, r20
    14fe:	b9 01       	movw	r22, r18
    1500:	0e 94 7d 17 	call	0x2efa	; 0x2efa <__mulsf3>
    1504:	9b 01       	movw	r18, r22
    1506:	ac 01       	movw	r20, r24
    1508:	c7 01       	movw	r24, r14
    150a:	b6 01       	movw	r22, r12
    150c:	0e 94 ee 15 	call	0x2bdc	; 0x2bdc <__addsf3>
    1510:	0e 94 e4 17 	call	0x2fc8	; 0x2fc8 <sqrt>
    1514:	69 83       	std	Y+1, r22	; 0x01
    1516:	7a 83       	std	Y+2, r23	; 0x02
    1518:	8b 83       	std	Y+3, r24	; 0x03
    151a:	9c 83       	std	Y+4, r25	; 0x04
	_2bz = -_2q1mx * q3 + _2q1my * q2 + mz * q1q1 + _2q2mx * q4 - mz * q2q2 + _2q3 * my * q4 - mz * q3q3 + mz * q4q4;
    151c:	29 85       	ldd	r18, Y+9	; 0x09
    151e:	3a 85       	ldd	r19, Y+10	; 0x0a
    1520:	4b 85       	ldd	r20, Y+11	; 0x0b
    1522:	5c 85       	ldd	r21, Y+12	; 0x0c
    1524:	50 58       	subi	r21, 0x80	; 128
    1526:	69 89       	ldd	r22, Y+17	; 0x11
    1528:	7a 89       	ldd	r23, Y+18	; 0x12
    152a:	8b 89       	ldd	r24, Y+19	; 0x13
    152c:	9c 89       	ldd	r25, Y+20	; 0x14
    152e:	0e 94 7d 17 	call	0x2efa	; 0x2efa <__mulsf3>
    1532:	6b 01       	movw	r12, r22
    1534:	7c 01       	movw	r14, r24
    1536:	2d a5       	ldd	r18, Y+45	; 0x2d
    1538:	3e a5       	ldd	r19, Y+46	; 0x2e
    153a:	4f a5       	ldd	r20, Y+47	; 0x2f
    153c:	58 a9       	ldd	r21, Y+48	; 0x30
    153e:	c3 01       	movw	r24, r6
    1540:	b2 01       	movw	r22, r4
    1542:	0e 94 7d 17 	call	0x2efa	; 0x2efa <__mulsf3>
    1546:	9b 01       	movw	r18, r22
    1548:	ac 01       	movw	r20, r24
    154a:	c7 01       	movw	r24, r14
    154c:	b6 01       	movw	r22, r12
    154e:	0e 94 ee 15 	call	0x2bdc	; 0x2bdc <__addsf3>
    1552:	6b 01       	movw	r12, r22
    1554:	7c 01       	movw	r14, r24
    1556:	2d 89       	ldd	r18, Y+21	; 0x15
    1558:	3e 89       	ldd	r19, Y+22	; 0x16
    155a:	4f 89       	ldd	r20, Y+23	; 0x17
    155c:	58 8d       	ldd	r21, Y+24	; 0x18
    155e:	69 ad       	ldd	r22, Y+57	; 0x39
    1560:	7a ad       	ldd	r23, Y+58	; 0x3a
    1562:	8b ad       	ldd	r24, Y+59	; 0x3b
    1564:	9c ad       	ldd	r25, Y+60	; 0x3c
    1566:	0e 94 7d 17 	call	0x2efa	; 0x2efa <__mulsf3>
    156a:	9b 01       	movw	r18, r22
    156c:	ac 01       	movw	r20, r24
    156e:	c7 01       	movw	r24, r14
    1570:	b6 01       	movw	r22, r12
    1572:	0e 94 ee 15 	call	0x2bdc	; 0x2bdc <__addsf3>
    1576:	6b 01       	movw	r12, r22
    1578:	7c 01       	movw	r14, r24
    157a:	25 96       	adiw	r28, 0x05	; 5
    157c:	2c ad       	ldd	r18, Y+60	; 0x3c
    157e:	3d ad       	ldd	r19, Y+61	; 0x3d
    1580:	4e ad       	ldd	r20, Y+62	; 0x3e
    1582:	5f ad       	ldd	r21, Y+63	; 0x3f
    1584:	25 97       	sbiw	r28, 0x05	; 5
    1586:	6d 81       	ldd	r22, Y+5	; 0x05
    1588:	7e 81       	ldd	r23, Y+6	; 0x06
    158a:	8f 81       	ldd	r24, Y+7	; 0x07
    158c:	98 85       	ldd	r25, Y+8	; 0x08
    158e:	0e 94 7d 17 	call	0x2efa	; 0x2efa <__mulsf3>
    1592:	9b 01       	movw	r18, r22
    1594:	ac 01       	movw	r20, r24
    1596:	c7 01       	movw	r24, r14
    1598:	b6 01       	movw	r22, r12
    159a:	0e 94 ee 15 	call	0x2bdc	; 0x2bdc <__addsf3>
    159e:	6b 01       	movw	r12, r22
    15a0:	7c 01       	movw	r14, r24
    15a2:	2d 89       	ldd	r18, Y+21	; 0x15
    15a4:	3e 89       	ldd	r19, Y+22	; 0x16
    15a6:	4f 89       	ldd	r20, Y+23	; 0x17
    15a8:	58 8d       	ldd	r21, Y+24	; 0x18
    15aa:	69 a5       	ldd	r22, Y+41	; 0x29
    15ac:	7a a5       	ldd	r23, Y+42	; 0x2a
    15ae:	8b a5       	ldd	r24, Y+43	; 0x2b
    15b0:	9c a5       	ldd	r25, Y+44	; 0x2c
    15b2:	0e 94 7d 17 	call	0x2efa	; 0x2efa <__mulsf3>
    15b6:	9b 01       	movw	r18, r22
    15b8:	ac 01       	movw	r20, r24
    15ba:	c7 01       	movw	r24, r14
    15bc:	b6 01       	movw	r22, r12
    15be:	0e 94 ed 15 	call	0x2bda	; 0x2bda <__subsf3>
    15c2:	6b 01       	movw	r12, r22
    15c4:	7c 01       	movw	r14, r24
    15c6:	2d 85       	ldd	r18, Y+13	; 0x0d
    15c8:	3e 85       	ldd	r19, Y+14	; 0x0e
    15ca:	4f 85       	ldd	r20, Y+15	; 0x0f
    15cc:	58 89       	ldd	r21, Y+16	; 0x10
    15ce:	61 96       	adiw	r28, 0x11	; 17
    15d0:	6c ad       	ldd	r22, Y+60	; 0x3c
    15d2:	7d ad       	ldd	r23, Y+61	; 0x3d
    15d4:	8e ad       	ldd	r24, Y+62	; 0x3e
    15d6:	9f ad       	ldd	r25, Y+63	; 0x3f
    15d8:	61 97       	sbiw	r28, 0x11	; 17
    15da:	0e 94 7d 17 	call	0x2efa	; 0x2efa <__mulsf3>
    15de:	9b 01       	movw	r18, r22
    15e0:	ac 01       	movw	r20, r24
    15e2:	6d 81       	ldd	r22, Y+5	; 0x05
    15e4:	7e 81       	ldd	r23, Y+6	; 0x06
    15e6:	8f 81       	ldd	r24, Y+7	; 0x07
    15e8:	98 85       	ldd	r25, Y+8	; 0x08
    15ea:	0e 94 7d 17 	call	0x2efa	; 0x2efa <__mulsf3>
    15ee:	9b 01       	movw	r18, r22
    15f0:	ac 01       	movw	r20, r24
    15f2:	c7 01       	movw	r24, r14
    15f4:	b6 01       	movw	r22, r12
    15f6:	0e 94 ee 15 	call	0x2bdc	; 0x2bdc <__addsf3>
    15fa:	6b 01       	movw	r12, r22
    15fc:	7c 01       	movw	r14, r24
    15fe:	2d 89       	ldd	r18, Y+21	; 0x15
    1600:	3e 89       	ldd	r19, Y+22	; 0x16
    1602:	4f 89       	ldd	r20, Y+23	; 0x17
    1604:	58 8d       	ldd	r21, Y+24	; 0x18
    1606:	69 a1       	ldd	r22, Y+33	; 0x21
    1608:	7a a1       	ldd	r23, Y+34	; 0x22
    160a:	8b a1       	ldd	r24, Y+35	; 0x23
    160c:	9c a1       	ldd	r25, Y+36	; 0x24
    160e:	0e 94 7d 17 	call	0x2efa	; 0x2efa <__mulsf3>
    1612:	9b 01       	movw	r18, r22
    1614:	ac 01       	movw	r20, r24
    1616:	c7 01       	movw	r24, r14
    1618:	b6 01       	movw	r22, r12
    161a:	0e 94 ed 15 	call	0x2bda	; 0x2bda <__subsf3>
    161e:	6b 01       	movw	r12, r22
    1620:	7c 01       	movw	r14, r24
    1622:	2d 89       	ldd	r18, Y+21	; 0x15
    1624:	3e 89       	ldd	r19, Y+22	; 0x16
    1626:	4f 89       	ldd	r20, Y+23	; 0x17
    1628:	58 8d       	ldd	r21, Y+24	; 0x18
    162a:	6d a9       	ldd	r22, Y+53	; 0x35
    162c:	7e a9       	ldd	r23, Y+54	; 0x36
    162e:	8f a9       	ldd	r24, Y+55	; 0x37
    1630:	98 ad       	ldd	r25, Y+56	; 0x38
    1632:	0e 94 7d 17 	call	0x2efa	; 0x2efa <__mulsf3>
    1636:	9b 01       	movw	r18, r22
    1638:	ac 01       	movw	r20, r24
    163a:	c7 01       	movw	r24, r14
    163c:	b6 01       	movw	r22, r12
    163e:	0e 94 ee 15 	call	0x2bdc	; 0x2bdc <__addsf3>
    1642:	69 87       	std	Y+9, r22	; 0x09
    1644:	7a 87       	std	Y+10, r23	; 0x0a
    1646:	8b 87       	std	Y+11, r24	; 0x0b
    1648:	9c 87       	std	Y+12, r25	; 0x0c
	_4bx = 2.0f * _2bx;
    164a:	29 81       	ldd	r18, Y+1	; 0x01
    164c:	3a 81       	ldd	r19, Y+2	; 0x02
    164e:	4b 81       	ldd	r20, Y+3	; 0x03
    1650:	5c 81       	ldd	r21, Y+4	; 0x04
    1652:	ca 01       	movw	r24, r20
    1654:	b9 01       	movw	r22, r18
    1656:	0e 94 ee 15 	call	0x2bdc	; 0x2bdc <__addsf3>
    165a:	6d 96       	adiw	r28, 0x1d	; 29
    165c:	6c af       	std	Y+60, r22	; 0x3c
    165e:	7d af       	std	Y+61, r23	; 0x3d
    1660:	8e af       	std	Y+62, r24	; 0x3e
    1662:	9f af       	std	Y+63, r25	; 0x3f
    1664:	6d 97       	sbiw	r28, 0x1d	; 29
	_4bz = 2.0f * _2bz;
    1666:	29 85       	ldd	r18, Y+9	; 0x09
    1668:	3a 85       	ldd	r19, Y+10	; 0x0a
    166a:	4b 85       	ldd	r20, Y+11	; 0x0b
    166c:	5c 85       	ldd	r21, Y+12	; 0x0c
    166e:	ca 01       	movw	r24, r20
    1670:	b9 01       	movw	r22, r18
    1672:	0e 94 ee 15 	call	0x2bdc	; 0x2bdc <__addsf3>
    1676:	25 96       	adiw	r28, 0x05	; 5
    1678:	6c af       	std	Y+60, r22	; 0x3c
    167a:	7d af       	std	Y+61, r23	; 0x3d
    167c:	8e af       	std	Y+62, r24	; 0x3e
    167e:	9f af       	std	Y+63, r25	; 0x3f
    1680:	25 97       	sbiw	r28, 0x05	; 5

	// Gradient decent algorithm corrective step
	s1 = -_2q3 * (2.0f * q2q4 - _2q1q3 - ax) + _2q2 * (2.0f * q1q2 + _2q3q4 - ay) - _2bz * q3 * (_2bx * (0.5f - q3q3 - q4q4) + _2bz * (q2q4 - q1q3) - mx) + (-_2bx * q4 + _2bz * q2) * (_2bx * (q2q3 - q1q4) + _2bz * (q1q2 + q3q4) - my) + _2bx * q3 * (_2bx * (q1q3 + q2q4) + _2bz * (0.5f - q2q2 - q3q3) - mz);
    1682:	61 96       	adiw	r28, 0x11	; 17
    1684:	cc ac       	ldd	r12, Y+60	; 0x3c
    1686:	dd ac       	ldd	r13, Y+61	; 0x3d
    1688:	ee ac       	ldd	r14, Y+62	; 0x3e
    168a:	ff ac       	ldd	r15, Y+63	; 0x3f
    168c:	61 97       	sbiw	r28, 0x11	; 17
    168e:	f7 fa       	bst	r15, 7
    1690:	f0 94       	com	r15
    1692:	f7 f8       	bld	r15, 7
    1694:	f0 94       	com	r15
    1696:	29 a9       	ldd	r18, Y+49	; 0x31
    1698:	3a a9       	ldd	r19, Y+50	; 0x32
    169a:	4b a9       	ldd	r20, Y+51	; 0x33
    169c:	5c a9       	ldd	r21, Y+52	; 0x34
    169e:	ca 01       	movw	r24, r20
    16a0:	b9 01       	movw	r22, r18
    16a2:	0e 94 ee 15 	call	0x2bdc	; 0x2bdc <__addsf3>
    16a6:	a1 96       	adiw	r28, 0x21	; 33
    16a8:	2c ad       	ldd	r18, Y+60	; 0x3c
    16aa:	3d ad       	ldd	r19, Y+61	; 0x3d
    16ac:	4e ad       	ldd	r20, Y+62	; 0x3e
    16ae:	5f ad       	ldd	r21, Y+63	; 0x3f
    16b0:	a1 97       	sbiw	r28, 0x21	; 33
    16b2:	0e 94 ed 15 	call	0x2bda	; 0x2bda <__subsf3>
    16b6:	69 96       	adiw	r28, 0x19	; 25
    16b8:	2c ad       	ldd	r18, Y+60	; 0x3c
    16ba:	3d ad       	ldd	r19, Y+61	; 0x3d
    16bc:	4e ad       	ldd	r20, Y+62	; 0x3e
    16be:	5f ad       	ldd	r21, Y+63	; 0x3f
    16c0:	69 97       	sbiw	r28, 0x19	; 25
    16c2:	0e 94 ed 15 	call	0x2bda	; 0x2bda <__subsf3>
    16c6:	6d a7       	std	Y+45, r22	; 0x2d
    16c8:	7e a7       	std	Y+46, r23	; 0x2e
    16ca:	8f a7       	std	Y+47, r24	; 0x2f
    16cc:	98 ab       	std	Y+48, r25	; 0x30
    16ce:	9b 01       	movw	r18, r22
    16d0:	ac 01       	movw	r20, r24
    16d2:	c7 01       	movw	r24, r14
    16d4:	b6 01       	movw	r22, r12
    16d6:	0e 94 7d 17 	call	0x2efa	; 0x2efa <__mulsf3>
    16da:	6b 01       	movw	r12, r22
    16dc:	7c 01       	movw	r14, r24
    16de:	21 96       	adiw	r28, 0x01	; 1
    16e0:	2c ad       	ldd	r18, Y+60	; 0x3c
    16e2:	3d ad       	ldd	r19, Y+61	; 0x3d
    16e4:	4e ad       	ldd	r20, Y+62	; 0x3e
    16e6:	5f ad       	ldd	r21, Y+63	; 0x3f
    16e8:	21 97       	sbiw	r28, 0x01	; 1
    16ea:	ca 01       	movw	r24, r20
    16ec:	b9 01       	movw	r22, r18
    16ee:	0e 94 ee 15 	call	0x2bdc	; 0x2bdc <__addsf3>
    16f2:	9b 01       	movw	r18, r22
    16f4:	ac 01       	movw	r20, r24
    16f6:	a5 96       	adiw	r28, 0x25	; 37
    16f8:	6c ad       	ldd	r22, Y+60	; 0x3c
    16fa:	7d ad       	ldd	r23, Y+61	; 0x3d
    16fc:	8e ad       	ldd	r24, Y+62	; 0x3e
    16fe:	9f ad       	ldd	r25, Y+63	; 0x3f
    1700:	a5 97       	sbiw	r28, 0x25	; 37
    1702:	0e 94 ee 15 	call	0x2bdc	; 0x2bdc <__addsf3>
    1706:	e5 96       	adiw	r28, 0x35	; 53
    1708:	2c ad       	ldd	r18, Y+60	; 0x3c
    170a:	3d ad       	ldd	r19, Y+61	; 0x3d
    170c:	4e ad       	ldd	r20, Y+62	; 0x3e
    170e:	5f ad       	ldd	r21, Y+63	; 0x3f
    1710:	e5 97       	sbiw	r28, 0x35	; 53
    1712:	0e 94 ed 15 	call	0x2bda	; 0x2bda <__subsf3>
    1716:	69 af       	std	Y+57, r22	; 0x39
    1718:	7a af       	std	Y+58, r23	; 0x3a
    171a:	8b af       	std	Y+59, r24	; 0x3b
    171c:	9c af       	std	Y+60, r25	; 0x3c
    171e:	9b 01       	movw	r18, r22
    1720:	ac 01       	movw	r20, r24
    1722:	2d 96       	adiw	r28, 0x0d	; 13
    1724:	6c ad       	ldd	r22, Y+60	; 0x3c
    1726:	7d ad       	ldd	r23, Y+61	; 0x3d
    1728:	8e ad       	ldd	r24, Y+62	; 0x3e
    172a:	9f ad       	ldd	r25, Y+63	; 0x3f
    172c:	2d 97       	sbiw	r28, 0x0d	; 13
    172e:	0e 94 7d 17 	call	0x2efa	; 0x2efa <__mulsf3>
    1732:	9b 01       	movw	r18, r22
    1734:	ac 01       	movw	r20, r24
    1736:	c7 01       	movw	r24, r14
    1738:	b6 01       	movw	r22, r12
    173a:	0e 94 ee 15 	call	0x2bdc	; 0x2bdc <__addsf3>
    173e:	6b 01       	movw	r12, r22
    1740:	7c 01       	movw	r14, r24
    1742:	29 85       	ldd	r18, Y+9	; 0x09
    1744:	3a 85       	ldd	r19, Y+10	; 0x0a
    1746:	4b 85       	ldd	r20, Y+11	; 0x0b
    1748:	5c 85       	ldd	r21, Y+12	; 0x0c
    174a:	69 89       	ldd	r22, Y+17	; 0x11
    174c:	7a 89       	ldd	r23, Y+18	; 0x12
    174e:	8b 89       	ldd	r24, Y+19	; 0x13
    1750:	9c 89       	ldd	r25, Y+20	; 0x14
    1752:	0e 94 7d 17 	call	0x2efa	; 0x2efa <__mulsf3>
    1756:	a1 96       	adiw	r28, 0x21	; 33
    1758:	6c af       	std	Y+60, r22	; 0x3c
    175a:	7d af       	std	Y+61, r23	; 0x3d
    175c:	8e af       	std	Y+62, r24	; 0x3e
    175e:	9f af       	std	Y+63, r25	; 0x3f
    1760:	a1 97       	sbiw	r28, 0x21	; 33
    1762:	29 a1       	ldd	r18, Y+33	; 0x21
    1764:	3a a1       	ldd	r19, Y+34	; 0x22
    1766:	4b a1       	ldd	r20, Y+35	; 0x23
    1768:	5c a1       	ldd	r21, Y+36	; 0x24
    176a:	60 e0       	ldi	r22, 0x00	; 0
    176c:	70 e0       	ldi	r23, 0x00	; 0
    176e:	80 e0       	ldi	r24, 0x00	; 0
    1770:	9f e3       	ldi	r25, 0x3F	; 63
    1772:	0e 94 ed 15 	call	0x2bda	; 0x2bda <__subsf3>
    1776:	2d a9       	ldd	r18, Y+53	; 0x35
    1778:	3e a9       	ldd	r19, Y+54	; 0x36
    177a:	4f a9       	ldd	r20, Y+55	; 0x37
    177c:	58 ad       	ldd	r21, Y+56	; 0x38
    177e:	0e 94 ed 15 	call	0x2bda	; 0x2bda <__subsf3>
    1782:	9b 01       	movw	r18, r22
    1784:	ac 01       	movw	r20, r24
    1786:	69 81       	ldd	r22, Y+1	; 0x01
    1788:	7a 81       	ldd	r23, Y+2	; 0x02
    178a:	8b 81       	ldd	r24, Y+3	; 0x03
    178c:	9c 81       	ldd	r25, Y+4	; 0x04
    178e:	0e 94 7d 17 	call	0x2efa	; 0x2efa <__mulsf3>
    1792:	6d ab       	std	Y+53, r22	; 0x35
    1794:	7e ab       	std	Y+54, r23	; 0x36
    1796:	8f ab       	std	Y+55, r24	; 0x37
    1798:	98 af       	std	Y+56, r25	; 0x38
    179a:	29 96       	adiw	r28, 0x09	; 9
    179c:	2c ad       	ldd	r18, Y+60	; 0x3c
    179e:	3d ad       	ldd	r19, Y+61	; 0x3d
    17a0:	4e ad       	ldd	r20, Y+62	; 0x3e
    17a2:	5f ad       	ldd	r21, Y+63	; 0x3f
    17a4:	29 97       	sbiw	r28, 0x09	; 9
    17a6:	69 a9       	ldd	r22, Y+49	; 0x31
    17a8:	7a a9       	ldd	r23, Y+50	; 0x32
    17aa:	8b a9       	ldd	r24, Y+51	; 0x33
    17ac:	9c a9       	ldd	r25, Y+52	; 0x34
    17ae:	0e 94 ed 15 	call	0x2bda	; 0x2bda <__subsf3>
    17b2:	9b 01       	movw	r18, r22
    17b4:	ac 01       	movw	r20, r24
    17b6:	69 85       	ldd	r22, Y+9	; 0x09
    17b8:	7a 85       	ldd	r23, Y+10	; 0x0a
    17ba:	8b 85       	ldd	r24, Y+11	; 0x0b
    17bc:	9c 85       	ldd	r25, Y+12	; 0x0c
    17be:	0e 94 7d 17 	call	0x2efa	; 0x2efa <__mulsf3>
    17c2:	9b 01       	movw	r18, r22
    17c4:	ac 01       	movw	r20, r24
    17c6:	6d a9       	ldd	r22, Y+53	; 0x35
    17c8:	7e a9       	ldd	r23, Y+54	; 0x36
    17ca:	8f a9       	ldd	r24, Y+55	; 0x37
    17cc:	98 ad       	ldd	r25, Y+56	; 0x38
    17ce:	0e 94 ee 15 	call	0x2bdc	; 0x2bdc <__addsf3>
    17d2:	29 8d       	ldd	r18, Y+25	; 0x19
    17d4:	3a 8d       	ldd	r19, Y+26	; 0x1a
    17d6:	4b 8d       	ldd	r20, Y+27	; 0x1b
    17d8:	5c 8d       	ldd	r21, Y+28	; 0x1c
    17da:	0e 94 ed 15 	call	0x2bda	; 0x2bda <__subsf3>
    17de:	69 8f       	std	Y+25, r22	; 0x19
    17e0:	7a 8f       	std	Y+26, r23	; 0x1a
    17e2:	8b 8f       	std	Y+27, r24	; 0x1b
    17e4:	9c 8f       	std	Y+28, r25	; 0x1c
    17e6:	9b 01       	movw	r18, r22
    17e8:	ac 01       	movw	r20, r24
    17ea:	a1 96       	adiw	r28, 0x21	; 33
    17ec:	6c ad       	ldd	r22, Y+60	; 0x3c
    17ee:	7d ad       	ldd	r23, Y+61	; 0x3d
    17f0:	8e ad       	ldd	r24, Y+62	; 0x3e
    17f2:	9f ad       	ldd	r25, Y+63	; 0x3f
    17f4:	a1 97       	sbiw	r28, 0x21	; 33
    17f6:	0e 94 7d 17 	call	0x2efa	; 0x2efa <__mulsf3>
    17fa:	9b 01       	movw	r18, r22
    17fc:	ac 01       	movw	r20, r24
    17fe:	c7 01       	movw	r24, r14
    1800:	b6 01       	movw	r22, r12
    1802:	0e 94 ed 15 	call	0x2bda	; 0x2bda <__subsf3>
    1806:	6b 01       	movw	r12, r22
    1808:	7c 01       	movw	r14, r24
    180a:	89 81       	ldd	r24, Y+1	; 0x01
    180c:	9a 81       	ldd	r25, Y+2	; 0x02
    180e:	ab 81       	ldd	r26, Y+3	; 0x03
    1810:	bc 81       	ldd	r27, Y+4	; 0x04
    1812:	b0 58       	subi	r27, 0x80	; 128
    1814:	8d ab       	std	Y+53, r24	; 0x35
    1816:	9e ab       	std	Y+54, r25	; 0x36
    1818:	af ab       	std	Y+55, r26	; 0x37
    181a:	b8 af       	std	Y+56, r27	; 0x38
    181c:	9c 01       	movw	r18, r24
    181e:	ad 01       	movw	r20, r26
    1820:	6d 81       	ldd	r22, Y+5	; 0x05
    1822:	7e 81       	ldd	r23, Y+6	; 0x06
    1824:	8f 81       	ldd	r24, Y+7	; 0x07
    1826:	98 85       	ldd	r25, Y+8	; 0x08
    1828:	0e 94 7d 17 	call	0x2efa	; 0x2efa <__mulsf3>
    182c:	69 96       	adiw	r28, 0x19	; 25
    182e:	6c af       	std	Y+60, r22	; 0x3c
    1830:	7d af       	std	Y+61, r23	; 0x3d
    1832:	8e af       	std	Y+62, r24	; 0x3e
    1834:	9f af       	std	Y+63, r25	; 0x3f
    1836:	69 97       	sbiw	r28, 0x19	; 25
    1838:	29 85       	ldd	r18, Y+9	; 0x09
    183a:	3a 85       	ldd	r19, Y+10	; 0x0a
    183c:	4b 85       	ldd	r20, Y+11	; 0x0b
    183e:	5c 85       	ldd	r21, Y+12	; 0x0c
    1840:	c3 01       	movw	r24, r6
    1842:	b2 01       	movw	r22, r4
    1844:	0e 94 7d 17 	call	0x2efa	; 0x2efa <__mulsf3>
    1848:	a5 96       	adiw	r28, 0x25	; 37
    184a:	6c af       	std	Y+60, r22	; 0x3c
    184c:	7d af       	std	Y+61, r23	; 0x3d
    184e:	8e af       	std	Y+62, r24	; 0x3e
    1850:	9f af       	std	Y+63, r25	; 0x3f
    1852:	a5 97       	sbiw	r28, 0x25	; 37
    1854:	9b 01       	movw	r18, r22
    1856:	ac 01       	movw	r20, r24
    1858:	69 96       	adiw	r28, 0x19	; 25
    185a:	6c ad       	ldd	r22, Y+60	; 0x3c
    185c:	7d ad       	ldd	r23, Y+61	; 0x3d
    185e:	8e ad       	ldd	r24, Y+62	; 0x3e
    1860:	9f ad       	ldd	r25, Y+63	; 0x3f
    1862:	69 97       	sbiw	r28, 0x19	; 25
    1864:	0e 94 ee 15 	call	0x2bdc	; 0x2bdc <__addsf3>
    1868:	69 96       	adiw	r28, 0x19	; 25
    186a:	6c af       	std	Y+60, r22	; 0x3c
    186c:	7d af       	std	Y+61, r23	; 0x3d
    186e:	8e af       	std	Y+62, r24	; 0x3e
    1870:	9f af       	std	Y+63, r25	; 0x3f
    1872:	69 97       	sbiw	r28, 0x19	; 25
    1874:	65 96       	adiw	r28, 0x15	; 21
    1876:	2c ad       	ldd	r18, Y+60	; 0x3c
    1878:	3d ad       	ldd	r19, Y+61	; 0x3d
    187a:	4e ad       	ldd	r20, Y+62	; 0x3e
    187c:	5f ad       	ldd	r21, Y+63	; 0x3f
    187e:	65 97       	sbiw	r28, 0x15	; 21
    1880:	ad 96       	adiw	r28, 0x2d	; 45
    1882:	6c ad       	ldd	r22, Y+60	; 0x3c
    1884:	7d ad       	ldd	r23, Y+61	; 0x3d
    1886:	8e ad       	ldd	r24, Y+62	; 0x3e
    1888:	9f ad       	ldd	r25, Y+63	; 0x3f
    188a:	ad 97       	sbiw	r28, 0x2d	; 45
    188c:	0e 94 ed 15 	call	0x2bda	; 0x2bda <__subsf3>
    1890:	9b 01       	movw	r18, r22
    1892:	ac 01       	movw	r20, r24
    1894:	69 81       	ldd	r22, Y+1	; 0x01
    1896:	7a 81       	ldd	r23, Y+2	; 0x02
    1898:	8b 81       	ldd	r24, Y+3	; 0x03
    189a:	9c 81       	ldd	r25, Y+4	; 0x04
    189c:	0e 94 7d 17 	call	0x2efa	; 0x2efa <__mulsf3>
    18a0:	65 96       	adiw	r28, 0x15	; 21
    18a2:	6c af       	std	Y+60, r22	; 0x3c
    18a4:	7d af       	std	Y+61, r23	; 0x3d
    18a6:	8e af       	std	Y+62, r24	; 0x3e
    18a8:	9f af       	std	Y+63, r25	; 0x3f
    18aa:	65 97       	sbiw	r28, 0x15	; 21
    18ac:	e1 96       	adiw	r28, 0x31	; 49
    18ae:	2c ad       	ldd	r18, Y+60	; 0x3c
    18b0:	3d ad       	ldd	r19, Y+61	; 0x3d
    18b2:	4e ad       	ldd	r20, Y+62	; 0x3e
    18b4:	5f ad       	ldd	r21, Y+63	; 0x3f
    18b6:	e1 97       	sbiw	r28, 0x31	; 49
    18b8:	21 96       	adiw	r28, 0x01	; 1
    18ba:	6c ad       	ldd	r22, Y+60	; 0x3c
    18bc:	7d ad       	ldd	r23, Y+61	; 0x3d
    18be:	8e ad       	ldd	r24, Y+62	; 0x3e
    18c0:	9f ad       	ldd	r25, Y+63	; 0x3f
    18c2:	21 97       	sbiw	r28, 0x01	; 1
    18c4:	0e 94 ee 15 	call	0x2bdc	; 0x2bdc <__addsf3>
    18c8:	9b 01       	movw	r18, r22
    18ca:	ac 01       	movw	r20, r24
    18cc:	69 85       	ldd	r22, Y+9	; 0x09
    18ce:	7a 85       	ldd	r23, Y+10	; 0x0a
    18d0:	8b 85       	ldd	r24, Y+11	; 0x0b
    18d2:	9c 85       	ldd	r25, Y+12	; 0x0c
    18d4:	0e 94 7d 17 	call	0x2efa	; 0x2efa <__mulsf3>
    18d8:	9b 01       	movw	r18, r22
    18da:	ac 01       	movw	r20, r24
    18dc:	65 96       	adiw	r28, 0x15	; 21
    18de:	6c ad       	ldd	r22, Y+60	; 0x3c
    18e0:	7d ad       	ldd	r23, Y+61	; 0x3d
    18e2:	8e ad       	ldd	r24, Y+62	; 0x3e
    18e4:	9f ad       	ldd	r25, Y+63	; 0x3f
    18e6:	65 97       	sbiw	r28, 0x15	; 21
    18e8:	0e 94 ee 15 	call	0x2bdc	; 0x2bdc <__addsf3>
    18ec:	2d 85       	ldd	r18, Y+13	; 0x0d
    18ee:	3e 85       	ldd	r19, Y+14	; 0x0e
    18f0:	4f 85       	ldd	r20, Y+15	; 0x0f
    18f2:	58 89       	ldd	r21, Y+16	; 0x10
    18f4:	0e 94 ed 15 	call	0x2bda	; 0x2bda <__subsf3>
    18f8:	6d 87       	std	Y+13, r22	; 0x0d
    18fa:	7e 87       	std	Y+14, r23	; 0x0e
    18fc:	8f 87       	std	Y+15, r24	; 0x0f
    18fe:	98 8b       	std	Y+16, r25	; 0x10
    1900:	9b 01       	movw	r18, r22
    1902:	ac 01       	movw	r20, r24
    1904:	69 96       	adiw	r28, 0x19	; 25
    1906:	6c ad       	ldd	r22, Y+60	; 0x3c
    1908:	7d ad       	ldd	r23, Y+61	; 0x3d
    190a:	8e ad       	ldd	r24, Y+62	; 0x3e
    190c:	9f ad       	ldd	r25, Y+63	; 0x3f
    190e:	69 97       	sbiw	r28, 0x19	; 25
    1910:	0e 94 7d 17 	call	0x2efa	; 0x2efa <__mulsf3>
    1914:	9b 01       	movw	r18, r22
    1916:	ac 01       	movw	r20, r24
    1918:	c7 01       	movw	r24, r14
    191a:	b6 01       	movw	r22, r12
    191c:	0e 94 ee 15 	call	0x2bdc	; 0x2bdc <__addsf3>
    1920:	6b 01       	movw	r12, r22
    1922:	7c 01       	movw	r14, r24
    1924:	29 81       	ldd	r18, Y+1	; 0x01
    1926:	3a 81       	ldd	r19, Y+2	; 0x02
    1928:	4b 81       	ldd	r20, Y+3	; 0x03
    192a:	5c 81       	ldd	r21, Y+4	; 0x04
    192c:	69 89       	ldd	r22, Y+17	; 0x11
    192e:	7a 89       	ldd	r23, Y+18	; 0x12
    1930:	8b 89       	ldd	r24, Y+19	; 0x13
    1932:	9c 89       	ldd	r25, Y+20	; 0x14
    1934:	0e 94 7d 17 	call	0x2efa	; 0x2efa <__mulsf3>
    1938:	21 96       	adiw	r28, 0x01	; 1
    193a:	6c af       	std	Y+60, r22	; 0x3c
    193c:	7d af       	std	Y+61, r23	; 0x3d
    193e:	8e af       	std	Y+62, r24	; 0x3e
    1940:	9f af       	std	Y+63, r25	; 0x3f
    1942:	21 97       	sbiw	r28, 0x01	; 1
    1944:	29 a9       	ldd	r18, Y+49	; 0x31
    1946:	3a a9       	ldd	r19, Y+50	; 0x32
    1948:	4b a9       	ldd	r20, Y+51	; 0x33
    194a:	5c a9       	ldd	r21, Y+52	; 0x34
    194c:	29 96       	adiw	r28, 0x09	; 9
    194e:	6c ad       	ldd	r22, Y+60	; 0x3c
    1950:	7d ad       	ldd	r23, Y+61	; 0x3d
    1952:	8e ad       	ldd	r24, Y+62	; 0x3e
    1954:	9f ad       	ldd	r25, Y+63	; 0x3f
    1956:	29 97       	sbiw	r28, 0x09	; 9
    1958:	0e 94 ee 15 	call	0x2bdc	; 0x2bdc <__addsf3>
    195c:	9b 01       	movw	r18, r22
    195e:	ac 01       	movw	r20, r24
    1960:	69 81       	ldd	r22, Y+1	; 0x01
    1962:	7a 81       	ldd	r23, Y+2	; 0x02
    1964:	8b 81       	ldd	r24, Y+3	; 0x03
    1966:	9c 81       	ldd	r25, Y+4	; 0x04
    1968:	0e 94 7d 17 	call	0x2efa	; 0x2efa <__mulsf3>
    196c:	69 ab       	std	Y+49, r22	; 0x31
    196e:	7a ab       	std	Y+50, r23	; 0x32
    1970:	8b ab       	std	Y+51, r24	; 0x33
    1972:	9c ab       	std	Y+52, r25	; 0x34
    1974:	29 a5       	ldd	r18, Y+41	; 0x29
    1976:	3a a5       	ldd	r19, Y+42	; 0x2a
    1978:	4b a5       	ldd	r20, Y+43	; 0x2b
    197a:	5c a5       	ldd	r21, Y+44	; 0x2c
    197c:	60 e0       	ldi	r22, 0x00	; 0
    197e:	70 e0       	ldi	r23, 0x00	; 0
    1980:	80 e0       	ldi	r24, 0x00	; 0
    1982:	9f e3       	ldi	r25, 0x3F	; 63
    1984:	0e 94 ed 15 	call	0x2bda	; 0x2bda <__subsf3>
    1988:	29 a1       	ldd	r18, Y+33	; 0x21
    198a:	3a a1       	ldd	r19, Y+34	; 0x22
    198c:	4b a1       	ldd	r20, Y+35	; 0x23
    198e:	5c a1       	ldd	r21, Y+36	; 0x24
    1990:	0e 94 ed 15 	call	0x2bda	; 0x2bda <__subsf3>
    1994:	9b 01       	movw	r18, r22
    1996:	ac 01       	movw	r20, r24
    1998:	69 85       	ldd	r22, Y+9	; 0x09
    199a:	7a 85       	ldd	r23, Y+10	; 0x0a
    199c:	8b 85       	ldd	r24, Y+11	; 0x0b
    199e:	9c 85       	ldd	r25, Y+12	; 0x0c
    19a0:	0e 94 7d 17 	call	0x2efa	; 0x2efa <__mulsf3>
    19a4:	9b 01       	movw	r18, r22
    19a6:	ac 01       	movw	r20, r24
    19a8:	69 a9       	ldd	r22, Y+49	; 0x31
    19aa:	7a a9       	ldd	r23, Y+50	; 0x32
    19ac:	8b a9       	ldd	r24, Y+51	; 0x33
    19ae:	9c a9       	ldd	r25, Y+52	; 0x34
    19b0:	0e 94 ee 15 	call	0x2bdc	; 0x2bdc <__addsf3>
    19b4:	2d 89       	ldd	r18, Y+21	; 0x15
    19b6:	3e 89       	ldd	r19, Y+22	; 0x16
    19b8:	4f 89       	ldd	r20, Y+23	; 0x17
    19ba:	58 8d       	ldd	r21, Y+24	; 0x18
    19bc:	0e 94 ed 15 	call	0x2bda	; 0x2bda <__subsf3>
    19c0:	6d 8b       	std	Y+21, r22	; 0x15
    19c2:	7e 8b       	std	Y+22, r23	; 0x16
    19c4:	8f 8b       	std	Y+23, r24	; 0x17
    19c6:	98 8f       	std	Y+24, r25	; 0x18
    19c8:	9b 01       	movw	r18, r22
    19ca:	ac 01       	movw	r20, r24
    19cc:	21 96       	adiw	r28, 0x01	; 1
    19ce:	6c ad       	ldd	r22, Y+60	; 0x3c
    19d0:	7d ad       	ldd	r23, Y+61	; 0x3d
    19d2:	8e ad       	ldd	r24, Y+62	; 0x3e
    19d4:	9f ad       	ldd	r25, Y+63	; 0x3f
    19d6:	21 97       	sbiw	r28, 0x01	; 1
    19d8:	0e 94 7d 17 	call	0x2efa	; 0x2efa <__mulsf3>
    19dc:	9b 01       	movw	r18, r22
    19de:	ac 01       	movw	r20, r24
    19e0:	c7 01       	movw	r24, r14
    19e2:	b6 01       	movw	r22, r12
    19e4:	0e 94 ee 15 	call	0x2bdc	; 0x2bdc <__addsf3>
    19e8:	69 ab       	std	Y+49, r22	; 0x31
    19ea:	7a ab       	std	Y+50, r23	; 0x32
    19ec:	8b ab       	std	Y+51, r24	; 0x33
    19ee:	9c ab       	std	Y+52, r25	; 0x34
	s2 = _2q4 * (2.0f * q2q4 - _2q1q3 - ax) + _2q1 * (2.0f * q1q2 + _2q3q4 - ay) - 4.0f * q2 * (1.0f - 2.0f * q2q2 - 2.0f * q3q3 - az) + _2bz * q4 * (_2bx * (0.5f - q3q3 - q4q4) + _2bz * (q2q4 - q1q3) - mx) + (_2bx * q3 + _2bz * q1) * (_2bx * (q2q3 - q1q4) + _2bz * (q1q2 + q3q4) - my) + (_2bx * q4 - _4bz * q2) * (_2bx * (q1q3 + q2q4) + _2bz * (0.5f - q2q2 - q3q3) - mz);
    19f0:	2d a5       	ldd	r18, Y+45	; 0x2d
    19f2:	3e a5       	ldd	r19, Y+46	; 0x2e
    19f4:	4f a5       	ldd	r20, Y+47	; 0x2f
    19f6:	58 a9       	ldd	r21, Y+48	; 0x30
    19f8:	a9 96       	adiw	r28, 0x29	; 41
    19fa:	6c ad       	ldd	r22, Y+60	; 0x3c
    19fc:	7d ad       	ldd	r23, Y+61	; 0x3d
    19fe:	8e ad       	ldd	r24, Y+62	; 0x3e
    1a00:	9f ad       	ldd	r25, Y+63	; 0x3f
    1a02:	a9 97       	sbiw	r28, 0x29	; 41
    1a04:	0e 94 7d 17 	call	0x2efa	; 0x2efa <__mulsf3>
    1a08:	6b 01       	movw	r12, r22
    1a0a:	7c 01       	movw	r14, r24
    1a0c:	29 ad       	ldd	r18, Y+57	; 0x39
    1a0e:	3a ad       	ldd	r19, Y+58	; 0x3a
    1a10:	4b ad       	ldd	r20, Y+59	; 0x3b
    1a12:	5c ad       	ldd	r21, Y+60	; 0x3c
    1a14:	6d a1       	ldd	r22, Y+37	; 0x25
    1a16:	7e a1       	ldd	r23, Y+38	; 0x26
    1a18:	8f a1       	ldd	r24, Y+39	; 0x27
    1a1a:	98 a5       	ldd	r25, Y+40	; 0x28
    1a1c:	0e 94 7d 17 	call	0x2efa	; 0x2efa <__mulsf3>
    1a20:	9b 01       	movw	r18, r22
    1a22:	ac 01       	movw	r20, r24
    1a24:	c7 01       	movw	r24, r14
    1a26:	b6 01       	movw	r22, r12
    1a28:	0e 94 ee 15 	call	0x2bdc	; 0x2bdc <__addsf3>
    1a2c:	29 96       	adiw	r28, 0x09	; 9
    1a2e:	6c af       	std	Y+60, r22	; 0x3c
    1a30:	7d af       	std	Y+61, r23	; 0x3d
    1a32:	8e af       	std	Y+62, r24	; 0x3e
    1a34:	9f af       	std	Y+63, r25	; 0x3f
    1a36:	29 97       	sbiw	r28, 0x09	; 9
    1a38:	20 e0       	ldi	r18, 0x00	; 0
    1a3a:	30 e0       	ldi	r19, 0x00	; 0
    1a3c:	40 e8       	ldi	r20, 0x80	; 128
    1a3e:	50 e4       	ldi	r21, 0x40	; 64
    1a40:	c3 01       	movw	r24, r6
    1a42:	b2 01       	movw	r22, r4
    1a44:	0e 94 7d 17 	call	0x2efa	; 0x2efa <__mulsf3>
    1a48:	65 96       	adiw	r28, 0x15	; 21
    1a4a:	6c af       	std	Y+60, r22	; 0x3c
    1a4c:	7d af       	std	Y+61, r23	; 0x3d
    1a4e:	8e af       	std	Y+62, r24	; 0x3e
    1a50:	9f af       	std	Y+63, r25	; 0x3f
    1a52:	65 97       	sbiw	r28, 0x15	; 21
    1a54:	29 a5       	ldd	r18, Y+41	; 0x29
    1a56:	3a a5       	ldd	r19, Y+42	; 0x2a
    1a58:	4b a5       	ldd	r20, Y+43	; 0x2b
    1a5a:	5c a5       	ldd	r21, Y+44	; 0x2c
    1a5c:	ca 01       	movw	r24, r20
    1a5e:	b9 01       	movw	r22, r18
    1a60:	0e 94 ee 15 	call	0x2bdc	; 0x2bdc <__addsf3>
    1a64:	9b 01       	movw	r18, r22
    1a66:	ac 01       	movw	r20, r24
    1a68:	60 e0       	ldi	r22, 0x00	; 0
    1a6a:	70 e0       	ldi	r23, 0x00	; 0
    1a6c:	80 e8       	ldi	r24, 0x80	; 128
    1a6e:	9f e3       	ldi	r25, 0x3F	; 63
    1a70:	0e 94 ed 15 	call	0x2bda	; 0x2bda <__subsf3>
    1a74:	6b 01       	movw	r12, r22
    1a76:	7c 01       	movw	r14, r24
    1a78:	29 a1       	ldd	r18, Y+33	; 0x21
    1a7a:	3a a1       	ldd	r19, Y+34	; 0x22
    1a7c:	4b a1       	ldd	r20, Y+35	; 0x23
    1a7e:	5c a1       	ldd	r21, Y+36	; 0x24
    1a80:	ca 01       	movw	r24, r20
    1a82:	b9 01       	movw	r22, r18
    1a84:	0e 94 ee 15 	call	0x2bdc	; 0x2bdc <__addsf3>
    1a88:	9b 01       	movw	r18, r22
    1a8a:	ac 01       	movw	r20, r24
    1a8c:	c7 01       	movw	r24, r14
    1a8e:	b6 01       	movw	r22, r12
    1a90:	0e 94 ed 15 	call	0x2bda	; 0x2bda <__subsf3>
    1a94:	e9 96       	adiw	r28, 0x39	; 57
    1a96:	2c ad       	ldd	r18, Y+60	; 0x3c
    1a98:	3d ad       	ldd	r19, Y+61	; 0x3d
    1a9a:	4e ad       	ldd	r20, Y+62	; 0x3e
    1a9c:	5f ad       	ldd	r21, Y+63	; 0x3f
    1a9e:	e9 97       	sbiw	r28, 0x39	; 57
    1aa0:	0e 94 ed 15 	call	0x2bda	; 0x2bda <__subsf3>
    1aa4:	6b 01       	movw	r12, r22
    1aa6:	7c 01       	movw	r14, r24
    1aa8:	9b 01       	movw	r18, r22
    1aaa:	ac 01       	movw	r20, r24
    1aac:	65 96       	adiw	r28, 0x15	; 21
    1aae:	6c ad       	ldd	r22, Y+60	; 0x3c
    1ab0:	7d ad       	ldd	r23, Y+61	; 0x3d
    1ab2:	8e ad       	ldd	r24, Y+62	; 0x3e
    1ab4:	9f ad       	ldd	r25, Y+63	; 0x3f
    1ab6:	65 97       	sbiw	r28, 0x15	; 21
    1ab8:	0e 94 7d 17 	call	0x2efa	; 0x2efa <__mulsf3>
    1abc:	9b 01       	movw	r18, r22
    1abe:	ac 01       	movw	r20, r24
    1ac0:	29 96       	adiw	r28, 0x09	; 9
    1ac2:	6c ad       	ldd	r22, Y+60	; 0x3c
    1ac4:	7d ad       	ldd	r23, Y+61	; 0x3d
    1ac6:	8e ad       	ldd	r24, Y+62	; 0x3e
    1ac8:	9f ad       	ldd	r25, Y+63	; 0x3f
    1aca:	29 97       	sbiw	r28, 0x09	; 9
    1acc:	0e 94 ed 15 	call	0x2bda	; 0x2bda <__subsf3>
    1ad0:	69 a7       	std	Y+41, r22	; 0x29
    1ad2:	7a a7       	std	Y+42, r23	; 0x2a
    1ad4:	8b a7       	std	Y+43, r24	; 0x2b
    1ad6:	9c a7       	std	Y+44, r25	; 0x2c
    1ad8:	29 85       	ldd	r18, Y+9	; 0x09
    1ada:	3a 85       	ldd	r19, Y+10	; 0x0a
    1adc:	4b 85       	ldd	r20, Y+11	; 0x0b
    1ade:	5c 85       	ldd	r21, Y+12	; 0x0c
    1ae0:	6d 81       	ldd	r22, Y+5	; 0x05
    1ae2:	7e 81       	ldd	r23, Y+6	; 0x06
    1ae4:	8f 81       	ldd	r24, Y+7	; 0x07
    1ae6:	98 85       	ldd	r25, Y+8	; 0x08
    1ae8:	0e 94 7d 17 	call	0x2efa	; 0x2efa <__mulsf3>
    1aec:	69 a3       	std	Y+33, r22	; 0x21
    1aee:	7a a3       	std	Y+34, r23	; 0x22
    1af0:	8b a3       	std	Y+35, r24	; 0x23
    1af2:	9c a3       	std	Y+36, r25	; 0x24
    1af4:	9b 01       	movw	r18, r22
    1af6:	ac 01       	movw	r20, r24
    1af8:	69 8d       	ldd	r22, Y+25	; 0x19
    1afa:	7a 8d       	ldd	r23, Y+26	; 0x1a
    1afc:	8b 8d       	ldd	r24, Y+27	; 0x1b
    1afe:	9c 8d       	ldd	r25, Y+28	; 0x1c
    1b00:	0e 94 7d 17 	call	0x2efa	; 0x2efa <__mulsf3>
    1b04:	9b 01       	movw	r18, r22
    1b06:	ac 01       	movw	r20, r24
    1b08:	69 a5       	ldd	r22, Y+41	; 0x29
    1b0a:	7a a5       	ldd	r23, Y+42	; 0x2a
    1b0c:	8b a5       	ldd	r24, Y+43	; 0x2b
    1b0e:	9c a5       	ldd	r25, Y+44	; 0x2c
    1b10:	0e 94 ee 15 	call	0x2bdc	; 0x2bdc <__addsf3>
    1b14:	29 96       	adiw	r28, 0x09	; 9
    1b16:	6c af       	std	Y+60, r22	; 0x3c
    1b18:	7d af       	std	Y+61, r23	; 0x3d
    1b1a:	8e af       	std	Y+62, r24	; 0x3e
    1b1c:	9f af       	std	Y+63, r25	; 0x3f
    1b1e:	29 97       	sbiw	r28, 0x09	; 9
    1b20:	29 85       	ldd	r18, Y+9	; 0x09
    1b22:	3a 85       	ldd	r19, Y+10	; 0x0a
    1b24:	4b 85       	ldd	r20, Y+11	; 0x0b
    1b26:	5c 85       	ldd	r21, Y+12	; 0x0c
    1b28:	6d 8d       	ldd	r22, Y+29	; 0x1d
    1b2a:	7e 8d       	ldd	r23, Y+30	; 0x1e
    1b2c:	8f 8d       	ldd	r24, Y+31	; 0x1f
    1b2e:	98 a1       	ldd	r25, Y+32	; 0x20
    1b30:	0e 94 7d 17 	call	0x2efa	; 0x2efa <__mulsf3>
    1b34:	69 a7       	std	Y+41, r22	; 0x29
    1b36:	7a a7       	std	Y+42, r23	; 0x2a
    1b38:	8b a7       	std	Y+43, r24	; 0x2b
    1b3a:	9c a7       	std	Y+44, r25	; 0x2c
    1b3c:	9b 01       	movw	r18, r22
    1b3e:	ac 01       	movw	r20, r24
    1b40:	21 96       	adiw	r28, 0x01	; 1
    1b42:	6c ad       	ldd	r22, Y+60	; 0x3c
    1b44:	7d ad       	ldd	r23, Y+61	; 0x3d
    1b46:	8e ad       	ldd	r24, Y+62	; 0x3e
    1b48:	9f ad       	ldd	r25, Y+63	; 0x3f
    1b4a:	21 97       	sbiw	r28, 0x01	; 1
    1b4c:	0e 94 ee 15 	call	0x2bdc	; 0x2bdc <__addsf3>
    1b50:	9b 01       	movw	r18, r22
    1b52:	ac 01       	movw	r20, r24
    1b54:	6d 85       	ldd	r22, Y+13	; 0x0d
    1b56:	7e 85       	ldd	r23, Y+14	; 0x0e
    1b58:	8f 85       	ldd	r24, Y+15	; 0x0f
    1b5a:	98 89       	ldd	r25, Y+16	; 0x10
    1b5c:	0e 94 7d 17 	call	0x2efa	; 0x2efa <__mulsf3>
    1b60:	9b 01       	movw	r18, r22
    1b62:	ac 01       	movw	r20, r24
    1b64:	29 96       	adiw	r28, 0x09	; 9
    1b66:	6c ad       	ldd	r22, Y+60	; 0x3c
    1b68:	7d ad       	ldd	r23, Y+61	; 0x3d
    1b6a:	8e ad       	ldd	r24, Y+62	; 0x3e
    1b6c:	9f ad       	ldd	r25, Y+63	; 0x3f
    1b6e:	29 97       	sbiw	r28, 0x09	; 9
    1b70:	0e 94 ee 15 	call	0x2bdc	; 0x2bdc <__addsf3>
    1b74:	69 87       	std	Y+9, r22	; 0x09
    1b76:	7a 87       	std	Y+10, r23	; 0x0a
    1b78:	8b 87       	std	Y+11, r24	; 0x0b
    1b7a:	9c 87       	std	Y+12, r25	; 0x0c
    1b7c:	29 81       	ldd	r18, Y+1	; 0x01
    1b7e:	3a 81       	ldd	r19, Y+2	; 0x02
    1b80:	4b 81       	ldd	r20, Y+3	; 0x03
    1b82:	5c 81       	ldd	r21, Y+4	; 0x04
    1b84:	6d 81       	ldd	r22, Y+5	; 0x05
    1b86:	7e 81       	ldd	r23, Y+6	; 0x06
    1b88:	8f 81       	ldd	r24, Y+7	; 0x07
    1b8a:	98 85       	ldd	r25, Y+8	; 0x08
    1b8c:	0e 94 7d 17 	call	0x2efa	; 0x2efa <__mulsf3>
    1b90:	21 96       	adiw	r28, 0x01	; 1
    1b92:	6c af       	std	Y+60, r22	; 0x3c
    1b94:	7d af       	std	Y+61, r23	; 0x3d
    1b96:	8e af       	std	Y+62, r24	; 0x3e
    1b98:	9f af       	std	Y+63, r25	; 0x3f
    1b9a:	21 97       	sbiw	r28, 0x01	; 1
    1b9c:	25 96       	adiw	r28, 0x05	; 5
    1b9e:	2c ad       	ldd	r18, Y+60	; 0x3c
    1ba0:	3d ad       	ldd	r19, Y+61	; 0x3d
    1ba2:	4e ad       	ldd	r20, Y+62	; 0x3e
    1ba4:	5f ad       	ldd	r21, Y+63	; 0x3f
    1ba6:	25 97       	sbiw	r28, 0x05	; 5
    1ba8:	c3 01       	movw	r24, r6
    1baa:	b2 01       	movw	r22, r4
    1bac:	0e 94 7d 17 	call	0x2efa	; 0x2efa <__mulsf3>
    1bb0:	9b 01       	movw	r18, r22
    1bb2:	ac 01       	movw	r20, r24
    1bb4:	21 96       	adiw	r28, 0x01	; 1
    1bb6:	6c ad       	ldd	r22, Y+60	; 0x3c
    1bb8:	7d ad       	ldd	r23, Y+61	; 0x3d
    1bba:	8e ad       	ldd	r24, Y+62	; 0x3e
    1bbc:	9f ad       	ldd	r25, Y+63	; 0x3f
    1bbe:	21 97       	sbiw	r28, 0x01	; 1
    1bc0:	0e 94 ed 15 	call	0x2bda	; 0x2bda <__subsf3>
    1bc4:	9b 01       	movw	r18, r22
    1bc6:	ac 01       	movw	r20, r24
    1bc8:	6d 89       	ldd	r22, Y+21	; 0x15
    1bca:	7e 89       	ldd	r23, Y+22	; 0x16
    1bcc:	8f 89       	ldd	r24, Y+23	; 0x17
    1bce:	98 8d       	ldd	r25, Y+24	; 0x18
    1bd0:	0e 94 7d 17 	call	0x2efa	; 0x2efa <__mulsf3>
    1bd4:	9b 01       	movw	r18, r22
    1bd6:	ac 01       	movw	r20, r24
    1bd8:	69 85       	ldd	r22, Y+9	; 0x09
    1bda:	7a 85       	ldd	r23, Y+10	; 0x0a
    1bdc:	8b 85       	ldd	r24, Y+11	; 0x0b
    1bde:	9c 85       	ldd	r25, Y+12	; 0x0c
    1be0:	fd d7       	rcall	.+4090   	; 0x2bdc <__addsf3>
    1be2:	69 87       	std	Y+9, r22	; 0x09
    1be4:	7a 87       	std	Y+10, r23	; 0x0a
    1be6:	8b 87       	std	Y+11, r24	; 0x0b
    1be8:	9c 87       	std	Y+12, r25	; 0x0c
	s3 = -_2q1 * (2.0f * q2q4 - _2q1q3 - ax) + _2q4 * (2.0f * q1q2 + _2q3q4 - ay) - 4.0f * q3 * (1.0f - 2.0f * q2q2 - 2.0f * q3q3 - az) + (-_4bx * q3 - _2bz * q1) * (_2bx * (0.5f - q3q3 - q4q4) + _2bz * (q2q4 - q1q3) - mx) + (_2bx * q2 + _2bz * q4) * (_2bx * (q2q3 - q1q4) + _2bz * (q1q2 + q3q4) - my) + (_2bx * q1 - _4bz * q3) * (_2bx * (q1q3 + q2q4) + _2bz * (0.5f - q2q2 - q3q3) - mz);
    1bea:	2d a1       	ldd	r18, Y+37	; 0x25
    1bec:	3e a1       	ldd	r19, Y+38	; 0x26
    1bee:	4f a1       	ldd	r20, Y+39	; 0x27
    1bf0:	58 a5       	ldd	r21, Y+40	; 0x28
    1bf2:	50 58       	subi	r21, 0x80	; 128
    1bf4:	6d a5       	ldd	r22, Y+45	; 0x2d
    1bf6:	7e a5       	ldd	r23, Y+46	; 0x2e
    1bf8:	8f a5       	ldd	r24, Y+47	; 0x2f
    1bfa:	98 a9       	ldd	r25, Y+48	; 0x30
    1bfc:	0e 94 7d 17 	call	0x2efa	; 0x2efa <__mulsf3>
    1c00:	6d a3       	std	Y+37, r22	; 0x25
    1c02:	7e a3       	std	Y+38, r23	; 0x26
    1c04:	8f a3       	std	Y+39, r24	; 0x27
    1c06:	98 a7       	std	Y+40, r25	; 0x28
    1c08:	29 ad       	ldd	r18, Y+57	; 0x39
    1c0a:	3a ad       	ldd	r19, Y+58	; 0x3a
    1c0c:	4b ad       	ldd	r20, Y+59	; 0x3b
    1c0e:	5c ad       	ldd	r21, Y+60	; 0x3c
    1c10:	a9 96       	adiw	r28, 0x29	; 41
    1c12:	6c ad       	ldd	r22, Y+60	; 0x3c
    1c14:	7d ad       	ldd	r23, Y+61	; 0x3d
    1c16:	8e ad       	ldd	r24, Y+62	; 0x3e
    1c18:	9f ad       	ldd	r25, Y+63	; 0x3f
    1c1a:	a9 97       	sbiw	r28, 0x29	; 41
    1c1c:	0e 94 7d 17 	call	0x2efa	; 0x2efa <__mulsf3>
    1c20:	9b 01       	movw	r18, r22
    1c22:	ac 01       	movw	r20, r24
    1c24:	6d a1       	ldd	r22, Y+37	; 0x25
    1c26:	7e a1       	ldd	r23, Y+38	; 0x26
    1c28:	8f a1       	ldd	r24, Y+39	; 0x27
    1c2a:	98 a5       	ldd	r25, Y+40	; 0x28
    1c2c:	d7 d7       	rcall	.+4014   	; 0x2bdc <__addsf3>
    1c2e:	6d a3       	std	Y+37, r22	; 0x25
    1c30:	7e a3       	std	Y+38, r23	; 0x26
    1c32:	8f a3       	std	Y+39, r24	; 0x27
    1c34:	98 a7       	std	Y+40, r25	; 0x28
    1c36:	20 e0       	ldi	r18, 0x00	; 0
    1c38:	30 e0       	ldi	r19, 0x00	; 0
    1c3a:	40 e8       	ldi	r20, 0x80	; 128
    1c3c:	50 e4       	ldi	r21, 0x40	; 64
    1c3e:	69 89       	ldd	r22, Y+17	; 0x11
    1c40:	7a 89       	ldd	r23, Y+18	; 0x12
    1c42:	8b 89       	ldd	r24, Y+19	; 0x13
    1c44:	9c 89       	ldd	r25, Y+20	; 0x14
    1c46:	0e 94 7d 17 	call	0x2efa	; 0x2efa <__mulsf3>
    1c4a:	9b 01       	movw	r18, r22
    1c4c:	ac 01       	movw	r20, r24
    1c4e:	c7 01       	movw	r24, r14
    1c50:	b6 01       	movw	r22, r12
    1c52:	0e 94 7d 17 	call	0x2efa	; 0x2efa <__mulsf3>
    1c56:	9b 01       	movw	r18, r22
    1c58:	ac 01       	movw	r20, r24
    1c5a:	6d a1       	ldd	r22, Y+37	; 0x25
    1c5c:	7e a1       	ldd	r23, Y+38	; 0x26
    1c5e:	8f a1       	ldd	r24, Y+39	; 0x27
    1c60:	98 a5       	ldd	r25, Y+40	; 0x28
    1c62:	bb d7       	rcall	.+3958   	; 0x2bda <__subsf3>
    1c64:	6d a3       	std	Y+37, r22	; 0x25
    1c66:	7e a3       	std	Y+38, r23	; 0x26
    1c68:	8f a3       	std	Y+39, r24	; 0x27
    1c6a:	98 a7       	std	Y+40, r25	; 0x28
    1c6c:	6d 96       	adiw	r28, 0x1d	; 29
    1c6e:	cc ac       	ldd	r12, Y+60	; 0x3c
    1c70:	dd ac       	ldd	r13, Y+61	; 0x3d
    1c72:	ee ac       	ldd	r14, Y+62	; 0x3e
    1c74:	ff ac       	ldd	r15, Y+63	; 0x3f
    1c76:	6d 97       	sbiw	r28, 0x1d	; 29
    1c78:	f7 fa       	bst	r15, 7
    1c7a:	f0 94       	com	r15
    1c7c:	f7 f8       	bld	r15, 7
    1c7e:	f0 94       	com	r15
    1c80:	a7 01       	movw	r20, r14
    1c82:	96 01       	movw	r18, r12
    1c84:	69 89       	ldd	r22, Y+17	; 0x11
    1c86:	7a 89       	ldd	r23, Y+18	; 0x12
    1c88:	8b 89       	ldd	r24, Y+19	; 0x13
    1c8a:	9c 89       	ldd	r25, Y+20	; 0x14
    1c8c:	0e 94 7d 17 	call	0x2efa	; 0x2efa <__mulsf3>
    1c90:	29 a5       	ldd	r18, Y+41	; 0x29
    1c92:	3a a5       	ldd	r19, Y+42	; 0x2a
    1c94:	4b a5       	ldd	r20, Y+43	; 0x2b
    1c96:	5c a5       	ldd	r21, Y+44	; 0x2c
    1c98:	a0 d7       	rcall	.+3904   	; 0x2bda <__subsf3>
    1c9a:	9b 01       	movw	r18, r22
    1c9c:	ac 01       	movw	r20, r24
    1c9e:	69 8d       	ldd	r22, Y+25	; 0x19
    1ca0:	7a 8d       	ldd	r23, Y+26	; 0x1a
    1ca2:	8b 8d       	ldd	r24, Y+27	; 0x1b
    1ca4:	9c 8d       	ldd	r25, Y+28	; 0x1c
    1ca6:	0e 94 7d 17 	call	0x2efa	; 0x2efa <__mulsf3>
    1caa:	9b 01       	movw	r18, r22
    1cac:	ac 01       	movw	r20, r24
    1cae:	6d a1       	ldd	r22, Y+37	; 0x25
    1cb0:	7e a1       	ldd	r23, Y+38	; 0x26
    1cb2:	8f a1       	ldd	r24, Y+39	; 0x27
    1cb4:	98 a5       	ldd	r25, Y+40	; 0x28
    1cb6:	92 d7       	rcall	.+3876   	; 0x2bdc <__addsf3>
    1cb8:	69 a7       	std	Y+41, r22	; 0x29
    1cba:	7a a7       	std	Y+42, r23	; 0x2a
    1cbc:	8b a7       	std	Y+43, r24	; 0x2b
    1cbe:	9c a7       	std	Y+44, r25	; 0x2c
    1cc0:	29 81       	ldd	r18, Y+1	; 0x01
    1cc2:	3a 81       	ldd	r19, Y+2	; 0x02
    1cc4:	4b 81       	ldd	r20, Y+3	; 0x03
    1cc6:	5c 81       	ldd	r21, Y+4	; 0x04
    1cc8:	c3 01       	movw	r24, r6
    1cca:	b2 01       	movw	r22, r4
    1ccc:	0e 94 7d 17 	call	0x2efa	; 0x2efa <__mulsf3>
    1cd0:	6d a3       	std	Y+37, r22	; 0x25
    1cd2:	7e a3       	std	Y+38, r23	; 0x26
    1cd4:	8f a3       	std	Y+39, r24	; 0x27
    1cd6:	98 a7       	std	Y+40, r25	; 0x28
    1cd8:	9b 01       	movw	r18, r22
    1cda:	ac 01       	movw	r20, r24
    1cdc:	69 a1       	ldd	r22, Y+33	; 0x21
    1cde:	7a a1       	ldd	r23, Y+34	; 0x22
    1ce0:	8b a1       	ldd	r24, Y+35	; 0x23
    1ce2:	9c a1       	ldd	r25, Y+36	; 0x24
    1ce4:	7b d7       	rcall	.+3830   	; 0x2bdc <__addsf3>
    1ce6:	9b 01       	movw	r18, r22
    1ce8:	ac 01       	movw	r20, r24
    1cea:	6d 85       	ldd	r22, Y+13	; 0x0d
    1cec:	7e 85       	ldd	r23, Y+14	; 0x0e
    1cee:	8f 85       	ldd	r24, Y+15	; 0x0f
    1cf0:	98 89       	ldd	r25, Y+16	; 0x10
    1cf2:	0e 94 7d 17 	call	0x2efa	; 0x2efa <__mulsf3>
    1cf6:	9b 01       	movw	r18, r22
    1cf8:	ac 01       	movw	r20, r24
    1cfa:	69 a5       	ldd	r22, Y+41	; 0x29
    1cfc:	7a a5       	ldd	r23, Y+42	; 0x2a
    1cfe:	8b a5       	ldd	r24, Y+43	; 0x2b
    1d00:	9c a5       	ldd	r25, Y+44	; 0x2c
    1d02:	6c d7       	rcall	.+3800   	; 0x2bdc <__addsf3>
    1d04:	69 a3       	std	Y+33, r22	; 0x21
    1d06:	7a a3       	std	Y+34, r23	; 0x22
    1d08:	8b a3       	std	Y+35, r24	; 0x23
    1d0a:	9c a3       	std	Y+36, r25	; 0x24
    1d0c:	29 81       	ldd	r18, Y+1	; 0x01
    1d0e:	3a 81       	ldd	r19, Y+2	; 0x02
    1d10:	4b 81       	ldd	r20, Y+3	; 0x03
    1d12:	5c 81       	ldd	r21, Y+4	; 0x04
    1d14:	6d 8d       	ldd	r22, Y+29	; 0x1d
    1d16:	7e 8d       	ldd	r23, Y+30	; 0x1e
    1d18:	8f 8d       	ldd	r24, Y+31	; 0x1f
    1d1a:	98 a1       	ldd	r25, Y+32	; 0x20
    1d1c:	0e 94 7d 17 	call	0x2efa	; 0x2efa <__mulsf3>
    1d20:	69 83       	std	Y+1, r22	; 0x01
    1d22:	7a 83       	std	Y+2, r23	; 0x02
    1d24:	8b 83       	std	Y+3, r24	; 0x03
    1d26:	9c 83       	std	Y+4, r25	; 0x04
    1d28:	25 96       	adiw	r28, 0x05	; 5
    1d2a:	2c ad       	ldd	r18, Y+60	; 0x3c
    1d2c:	3d ad       	ldd	r19, Y+61	; 0x3d
    1d2e:	4e ad       	ldd	r20, Y+62	; 0x3e
    1d30:	5f ad       	ldd	r21, Y+63	; 0x3f
    1d32:	25 97       	sbiw	r28, 0x05	; 5
    1d34:	69 89       	ldd	r22, Y+17	; 0x11
    1d36:	7a 89       	ldd	r23, Y+18	; 0x12
    1d38:	8b 89       	ldd	r24, Y+19	; 0x13
    1d3a:	9c 89       	ldd	r25, Y+20	; 0x14
    1d3c:	0e 94 7d 17 	call	0x2efa	; 0x2efa <__mulsf3>
    1d40:	9b 01       	movw	r18, r22
    1d42:	ac 01       	movw	r20, r24
    1d44:	69 81       	ldd	r22, Y+1	; 0x01
    1d46:	7a 81       	ldd	r23, Y+2	; 0x02
    1d48:	8b 81       	ldd	r24, Y+3	; 0x03
    1d4a:	9c 81       	ldd	r25, Y+4	; 0x04
    1d4c:	46 d7       	rcall	.+3724   	; 0x2bda <__subsf3>
    1d4e:	9b 01       	movw	r18, r22
    1d50:	ac 01       	movw	r20, r24
    1d52:	6d 89       	ldd	r22, Y+21	; 0x15
    1d54:	7e 89       	ldd	r23, Y+22	; 0x16
    1d56:	8f 89       	ldd	r24, Y+23	; 0x17
    1d58:	98 8d       	ldd	r25, Y+24	; 0x18
    1d5a:	0e 94 7d 17 	call	0x2efa	; 0x2efa <__mulsf3>
    1d5e:	9b 01       	movw	r18, r22
    1d60:	ac 01       	movw	r20, r24
    1d62:	69 a1       	ldd	r22, Y+33	; 0x21
    1d64:	7a a1       	ldd	r23, Y+34	; 0x22
    1d66:	8b a1       	ldd	r24, Y+35	; 0x23
    1d68:	9c a1       	ldd	r25, Y+36	; 0x24
    1d6a:	38 d7       	rcall	.+3696   	; 0x2bdc <__addsf3>
    1d6c:	69 83       	std	Y+1, r22	; 0x01
    1d6e:	7a 83       	std	Y+2, r23	; 0x02
    1d70:	8b 83       	std	Y+3, r24	; 0x03
    1d72:	9c 83       	std	Y+4, r25	; 0x04
	s4 = _2q2 * (2.0f * q2q4 - _2q1q3 - ax) + _2q3 * (2.0f * q1q2 + _2q3q4 - ay) + (-_4bx * q4 + _2bz * q2) * (_2bx * (0.5f - q3q3 - q4q4) + _2bz * (q2q4 - q1q3) - mx) + (-_2bx * q1 + _2bz * q3) * (_2bx * (q2q3 - q1q4) + _2bz * (q1q2 + q3q4) - my) + _2bx * q2 * (_2bx * (q1q3 + q2q4) + _2bz * (0.5f - q2q2 - q3q3) - mz);
    1d74:	2d a5       	ldd	r18, Y+45	; 0x2d
    1d76:	3e a5       	ldd	r19, Y+46	; 0x2e
    1d78:	4f a5       	ldd	r20, Y+47	; 0x2f
    1d7a:	58 a9       	ldd	r21, Y+48	; 0x30
    1d7c:	2d 96       	adiw	r28, 0x0d	; 13
    1d7e:	6c ad       	ldd	r22, Y+60	; 0x3c
    1d80:	7d ad       	ldd	r23, Y+61	; 0x3d
    1d82:	8e ad       	ldd	r24, Y+62	; 0x3e
    1d84:	9f ad       	ldd	r25, Y+63	; 0x3f
    1d86:	2d 97       	sbiw	r28, 0x0d	; 13
    1d88:	0e 94 7d 17 	call	0x2efa	; 0x2efa <__mulsf3>
    1d8c:	69 a3       	std	Y+33, r22	; 0x21
    1d8e:	7a a3       	std	Y+34, r23	; 0x22
    1d90:	8b a3       	std	Y+35, r24	; 0x23
    1d92:	9c a3       	std	Y+36, r25	; 0x24
    1d94:	29 ad       	ldd	r18, Y+57	; 0x39
    1d96:	3a ad       	ldd	r19, Y+58	; 0x3a
    1d98:	4b ad       	ldd	r20, Y+59	; 0x3b
    1d9a:	5c ad       	ldd	r21, Y+60	; 0x3c
    1d9c:	61 96       	adiw	r28, 0x11	; 17
    1d9e:	6c ad       	ldd	r22, Y+60	; 0x3c
    1da0:	7d ad       	ldd	r23, Y+61	; 0x3d
    1da2:	8e ad       	ldd	r24, Y+62	; 0x3e
    1da4:	9f ad       	ldd	r25, Y+63	; 0x3f
    1da6:	61 97       	sbiw	r28, 0x11	; 17
    1da8:	0e 94 7d 17 	call	0x2efa	; 0x2efa <__mulsf3>
    1dac:	9b 01       	movw	r18, r22
    1dae:	ac 01       	movw	r20, r24
    1db0:	69 a1       	ldd	r22, Y+33	; 0x21
    1db2:	7a a1       	ldd	r23, Y+34	; 0x22
    1db4:	8b a1       	ldd	r24, Y+35	; 0x23
    1db6:	9c a1       	ldd	r25, Y+36	; 0x24
    1db8:	11 d7       	rcall	.+3618   	; 0x2bdc <__addsf3>
    1dba:	69 a3       	std	Y+33, r22	; 0x21
    1dbc:	7a a3       	std	Y+34, r23	; 0x22
    1dbe:	8b a3       	std	Y+35, r24	; 0x23
    1dc0:	9c a3       	std	Y+36, r25	; 0x24
    1dc2:	a7 01       	movw	r20, r14
    1dc4:	96 01       	movw	r18, r12
    1dc6:	6d 81       	ldd	r22, Y+5	; 0x05
    1dc8:	7e 81       	ldd	r23, Y+6	; 0x06
    1dca:	8f 81       	ldd	r24, Y+7	; 0x07
    1dcc:	98 85       	ldd	r25, Y+8	; 0x08
    1dce:	0e 94 7d 17 	call	0x2efa	; 0x2efa <__mulsf3>
    1dd2:	9b 01       	movw	r18, r22
    1dd4:	ac 01       	movw	r20, r24
    1dd6:	a5 96       	adiw	r28, 0x25	; 37
    1dd8:	6c ad       	ldd	r22, Y+60	; 0x3c
    1dda:	7d ad       	ldd	r23, Y+61	; 0x3d
    1ddc:	8e ad       	ldd	r24, Y+62	; 0x3e
    1dde:	9f ad       	ldd	r25, Y+63	; 0x3f
    1de0:	a5 97       	sbiw	r28, 0x25	; 37
    1de2:	fc d6       	rcall	.+3576   	; 0x2bdc <__addsf3>
    1de4:	9b 01       	movw	r18, r22
    1de6:	ac 01       	movw	r20, r24
    1de8:	69 8d       	ldd	r22, Y+25	; 0x19
    1dea:	7a 8d       	ldd	r23, Y+26	; 0x1a
    1dec:	8b 8d       	ldd	r24, Y+27	; 0x1b
    1dee:	9c 8d       	ldd	r25, Y+28	; 0x1c
    1df0:	0e 94 7d 17 	call	0x2efa	; 0x2efa <__mulsf3>
    1df4:	9b 01       	movw	r18, r22
    1df6:	ac 01       	movw	r20, r24
    1df8:	69 a1       	ldd	r22, Y+33	; 0x21
    1dfa:	7a a1       	ldd	r23, Y+34	; 0x22
    1dfc:	8b a1       	ldd	r24, Y+35	; 0x23
    1dfe:	9c a1       	ldd	r25, Y+36	; 0x24
    1e00:	ed d6       	rcall	.+3546   	; 0x2bdc <__addsf3>
    1e02:	6b 01       	movw	r12, r22
    1e04:	7c 01       	movw	r14, r24
    1e06:	2d a9       	ldd	r18, Y+53	; 0x35
    1e08:	3e a9       	ldd	r19, Y+54	; 0x36
    1e0a:	4f a9       	ldd	r20, Y+55	; 0x37
    1e0c:	58 ad       	ldd	r21, Y+56	; 0x38
    1e0e:	6d 8d       	ldd	r22, Y+29	; 0x1d
    1e10:	7e 8d       	ldd	r23, Y+30	; 0x1e
    1e12:	8f 8d       	ldd	r24, Y+31	; 0x1f
    1e14:	98 a1       	ldd	r25, Y+32	; 0x20
    1e16:	0e 94 7d 17 	call	0x2efa	; 0x2efa <__mulsf3>
    1e1a:	9b 01       	movw	r18, r22
    1e1c:	ac 01       	movw	r20, r24
    1e1e:	a1 96       	adiw	r28, 0x21	; 33
    1e20:	6c ad       	ldd	r22, Y+60	; 0x3c
    1e22:	7d ad       	ldd	r23, Y+61	; 0x3d
    1e24:	8e ad       	ldd	r24, Y+62	; 0x3e
    1e26:	9f ad       	ldd	r25, Y+63	; 0x3f
    1e28:	a1 97       	sbiw	r28, 0x21	; 33
    1e2a:	d8 d6       	rcall	.+3504   	; 0x2bdc <__addsf3>
    1e2c:	9b 01       	movw	r18, r22
    1e2e:	ac 01       	movw	r20, r24
    1e30:	6d 85       	ldd	r22, Y+13	; 0x0d
    1e32:	7e 85       	ldd	r23, Y+14	; 0x0e
    1e34:	8f 85       	ldd	r24, Y+15	; 0x0f
    1e36:	98 89       	ldd	r25, Y+16	; 0x10
    1e38:	0e 94 7d 17 	call	0x2efa	; 0x2efa <__mulsf3>
    1e3c:	9b 01       	movw	r18, r22
    1e3e:	ac 01       	movw	r20, r24
    1e40:	c7 01       	movw	r24, r14
    1e42:	b6 01       	movw	r22, r12
    1e44:	cb d6       	rcall	.+3478   	; 0x2bdc <__addsf3>
    1e46:	6b 01       	movw	r12, r22
    1e48:	7c 01       	movw	r14, r24
    1e4a:	2d a1       	ldd	r18, Y+37	; 0x25
    1e4c:	3e a1       	ldd	r19, Y+38	; 0x26
    1e4e:	4f a1       	ldd	r20, Y+39	; 0x27
    1e50:	58 a5       	ldd	r21, Y+40	; 0x28
    1e52:	6d 89       	ldd	r22, Y+21	; 0x15
    1e54:	7e 89       	ldd	r23, Y+22	; 0x16
    1e56:	8f 89       	ldd	r24, Y+23	; 0x17
    1e58:	98 8d       	ldd	r25, Y+24	; 0x18
    1e5a:	0e 94 7d 17 	call	0x2efa	; 0x2efa <__mulsf3>
    1e5e:	9b 01       	movw	r18, r22
    1e60:	ac 01       	movw	r20, r24
    1e62:	c7 01       	movw	r24, r14
    1e64:	b6 01       	movw	r22, r12
    1e66:	ba d6       	rcall	.+3444   	; 0x2bdc <__addsf3>
    1e68:	6d 87       	std	Y+13, r22	; 0x0d
    1e6a:	7e 87       	std	Y+14, r23	; 0x0e
    1e6c:	8f 87       	std	Y+15, r24	; 0x0f
    1e6e:	98 8b       	std	Y+16, r25	; 0x10
	norm = sqrtf(s1 * s1 + s2 * s2 + s3 * s3 + s4 * s4);    // normalise step magnitude
    1e70:	29 a9       	ldd	r18, Y+49	; 0x31
    1e72:	3a a9       	ldd	r19, Y+50	; 0x32
    1e74:	4b a9       	ldd	r20, Y+51	; 0x33
    1e76:	5c a9       	ldd	r21, Y+52	; 0x34
    1e78:	ca 01       	movw	r24, r20
    1e7a:	b9 01       	movw	r22, r18
    1e7c:	0e 94 7d 17 	call	0x2efa	; 0x2efa <__mulsf3>
    1e80:	6b 01       	movw	r12, r22
    1e82:	7c 01       	movw	r14, r24
    1e84:	29 85       	ldd	r18, Y+9	; 0x09
    1e86:	3a 85       	ldd	r19, Y+10	; 0x0a
    1e88:	4b 85       	ldd	r20, Y+11	; 0x0b
    1e8a:	5c 85       	ldd	r21, Y+12	; 0x0c
    1e8c:	ca 01       	movw	r24, r20
    1e8e:	b9 01       	movw	r22, r18
    1e90:	0e 94 7d 17 	call	0x2efa	; 0x2efa <__mulsf3>
    1e94:	9b 01       	movw	r18, r22
    1e96:	ac 01       	movw	r20, r24
    1e98:	c7 01       	movw	r24, r14
    1e9a:	b6 01       	movw	r22, r12
    1e9c:	9f d6       	rcall	.+3390   	; 0x2bdc <__addsf3>
    1e9e:	6b 01       	movw	r12, r22
    1ea0:	7c 01       	movw	r14, r24
    1ea2:	29 81       	ldd	r18, Y+1	; 0x01
    1ea4:	3a 81       	ldd	r19, Y+2	; 0x02
    1ea6:	4b 81       	ldd	r20, Y+3	; 0x03
    1ea8:	5c 81       	ldd	r21, Y+4	; 0x04
    1eaa:	ca 01       	movw	r24, r20
    1eac:	b9 01       	movw	r22, r18
    1eae:	0e 94 7d 17 	call	0x2efa	; 0x2efa <__mulsf3>
    1eb2:	9b 01       	movw	r18, r22
    1eb4:	ac 01       	movw	r20, r24
    1eb6:	c7 01       	movw	r24, r14
    1eb8:	b6 01       	movw	r22, r12
    1eba:	90 d6       	rcall	.+3360   	; 0x2bdc <__addsf3>
    1ebc:	6b 01       	movw	r12, r22
    1ebe:	7c 01       	movw	r14, r24
    1ec0:	2d 85       	ldd	r18, Y+13	; 0x0d
    1ec2:	3e 85       	ldd	r19, Y+14	; 0x0e
    1ec4:	4f 85       	ldd	r20, Y+15	; 0x0f
    1ec6:	58 89       	ldd	r21, Y+16	; 0x10
    1ec8:	ca 01       	movw	r24, r20
    1eca:	b9 01       	movw	r22, r18
    1ecc:	0e 94 7d 17 	call	0x2efa	; 0x2efa <__mulsf3>
    1ed0:	9b 01       	movw	r18, r22
    1ed2:	ac 01       	movw	r20, r24
    1ed4:	c7 01       	movw	r24, r14
    1ed6:	b6 01       	movw	r22, r12
    1ed8:	81 d6       	rcall	.+3330   	; 0x2bdc <__addsf3>
    1eda:	0e 94 e4 17 	call	0x2fc8	; 0x2fc8 <sqrt>
	norm = 1.0f/norm;
    1ede:	9b 01       	movw	r18, r22
    1ee0:	ac 01       	movw	r20, r24
    1ee2:	60 e0       	ldi	r22, 0x00	; 0
    1ee4:	70 e0       	ldi	r23, 0x00	; 0
    1ee6:	80 e8       	ldi	r24, 0x80	; 128
    1ee8:	9f e3       	ldi	r25, 0x3F	; 63
    1eea:	dc d6       	rcall	.+3512   	; 0x2ca4 <__divsf3>
	s1 *= norm;
    1eec:	6b 01       	movw	r12, r22
    1eee:	7c 01       	movw	r14, r24
    1ef0:	9b 01       	movw	r18, r22
    1ef2:	ac 01       	movw	r20, r24
    1ef4:	69 a9       	ldd	r22, Y+49	; 0x31
    1ef6:	7a a9       	ldd	r23, Y+50	; 0x32
    1ef8:	8b a9       	ldd	r24, Y+51	; 0x33
    1efa:	9c a9       	ldd	r25, Y+52	; 0x34
    1efc:	fe d7       	rcall	.+4092   	; 0x2efa <__mulsf3>
    1efe:	6d 8b       	std	Y+21, r22	; 0x15
    1f00:	7e 8b       	std	Y+22, r23	; 0x16
    1f02:	8f 8b       	std	Y+23, r24	; 0x17
	s2 *= norm;
    1f04:	98 8f       	std	Y+24, r25	; 0x18
    1f06:	a7 01       	movw	r20, r14
    1f08:	96 01       	movw	r18, r12
    1f0a:	69 85       	ldd	r22, Y+9	; 0x09
    1f0c:	7a 85       	ldd	r23, Y+10	; 0x0a
    1f0e:	8b 85       	ldd	r24, Y+11	; 0x0b
    1f10:	9c 85       	ldd	r25, Y+12	; 0x0c
    1f12:	f3 d7       	rcall	.+4070   	; 0x2efa <__mulsf3>
    1f14:	69 87       	std	Y+9, r22	; 0x09
    1f16:	7a 87       	std	Y+10, r23	; 0x0a
    1f18:	8b 87       	std	Y+11, r24	; 0x0b
	s3 *= norm;
    1f1a:	9c 87       	std	Y+12, r25	; 0x0c
    1f1c:	a7 01       	movw	r20, r14
    1f1e:	96 01       	movw	r18, r12
    1f20:	69 81       	ldd	r22, Y+1	; 0x01
    1f22:	7a 81       	ldd	r23, Y+2	; 0x02
    1f24:	8b 81       	ldd	r24, Y+3	; 0x03
    1f26:	9c 81       	ldd	r25, Y+4	; 0x04
    1f28:	e8 d7       	rcall	.+4048   	; 0x2efa <__mulsf3>
    1f2a:	69 83       	std	Y+1, r22	; 0x01
    1f2c:	7a 83       	std	Y+2, r23	; 0x02
    1f2e:	8b 83       	std	Y+3, r24	; 0x03
	s4 *= norm;
    1f30:	9c 83       	std	Y+4, r25	; 0x04
    1f32:	a7 01       	movw	r20, r14
    1f34:	96 01       	movw	r18, r12
    1f36:	6d 85       	ldd	r22, Y+13	; 0x0d
    1f38:	7e 85       	ldd	r23, Y+14	; 0x0e
    1f3a:	8f 85       	ldd	r24, Y+15	; 0x0f
    1f3c:	98 89       	ldd	r25, Y+16	; 0x10
    1f3e:	dd d7       	rcall	.+4026   	; 0x2efa <__mulsf3>
    1f40:	6d 87       	std	Y+13, r22	; 0x0d
    1f42:	7e 87       	std	Y+14, r23	; 0x0e
    1f44:	8f 87       	std	Y+15, r24	; 0x0f
    1f46:	98 8b       	std	Y+16, r25	; 0x10

	// Compute rate of change of quaternion
	qDot1 = 0.5f * (-q2 * gx - q3 * gy - q4 * gz) - beta * s1;
    1f48:	c3 01       	movw	r24, r6
    1f4a:	b2 01       	movw	r22, r4
    1f4c:	90 58       	subi	r25, 0x80	; 128
    1f4e:	a5 01       	movw	r20, r10
    1f50:	94 01       	movw	r18, r8
    1f52:	d3 d7       	rcall	.+4006   	; 0x2efa <__mulsf3>
    1f54:	6b 01       	movw	r12, r22
    1f56:	7c 01       	movw	r14, r24
    1f58:	c3 57       	subi	r28, 0x73	; 115
    1f5a:	df 4f       	sbci	r29, 0xFF	; 255
    1f5c:	28 81       	ld	r18, Y
    1f5e:	39 81       	ldd	r19, Y+1	; 0x01
    1f60:	4a 81       	ldd	r20, Y+2	; 0x02
    1f62:	5b 81       	ldd	r21, Y+3	; 0x03
    1f64:	cd 58       	subi	r28, 0x8D	; 141
    1f66:	d0 40       	sbci	r29, 0x00	; 0
    1f68:	69 89       	ldd	r22, Y+17	; 0x11
    1f6a:	7a 89       	ldd	r23, Y+18	; 0x12
    1f6c:	8b 89       	ldd	r24, Y+19	; 0x13
    1f6e:	9c 89       	ldd	r25, Y+20	; 0x14
    1f70:	c4 d7       	rcall	.+3976   	; 0x2efa <__mulsf3>
    1f72:	9b 01       	movw	r18, r22
    1f74:	ac 01       	movw	r20, r24
    1f76:	c7 01       	movw	r24, r14
    1f78:	b6 01       	movw	r22, r12
    1f7a:	2f d6       	rcall	.+3166   	; 0x2bda <__subsf3>
    1f7c:	6b 01       	movw	r12, r22
    1f7e:	7c 01       	movw	r14, r24
    1f80:	cf 56       	subi	r28, 0x6F	; 111
    1f82:	df 4f       	sbci	r29, 0xFF	; 255
    1f84:	28 81       	ld	r18, Y
    1f86:	39 81       	ldd	r19, Y+1	; 0x01
    1f88:	4a 81       	ldd	r20, Y+2	; 0x02
    1f8a:	5b 81       	ldd	r21, Y+3	; 0x03
    1f8c:	c1 59       	subi	r28, 0x91	; 145
    1f8e:	d0 40       	sbci	r29, 0x00	; 0
    1f90:	6d 81       	ldd	r22, Y+5	; 0x05
    1f92:	7e 81       	ldd	r23, Y+6	; 0x06
    1f94:	8f 81       	ldd	r24, Y+7	; 0x07
    1f96:	98 85       	ldd	r25, Y+8	; 0x08
    1f98:	b0 d7       	rcall	.+3936   	; 0x2efa <__mulsf3>
    1f9a:	9b 01       	movw	r18, r22
    1f9c:	ac 01       	movw	r20, r24
    1f9e:	c7 01       	movw	r24, r14
    1fa0:	b6 01       	movw	r22, r12
    1fa2:	1b d6       	rcall	.+3126   	; 0x2bda <__subsf3>
    1fa4:	20 e0       	ldi	r18, 0x00	; 0
    1fa6:	30 e0       	ldi	r19, 0x00	; 0
    1fa8:	40 e0       	ldi	r20, 0x00	; 0
    1faa:	5f e3       	ldi	r21, 0x3F	; 63
    1fac:	a6 d7       	rcall	.+3916   	; 0x2efa <__mulsf3>
    1fae:	6b 01       	movw	r12, r22
    1fb0:	7c 01       	movw	r14, r24
    1fb2:	2d ec       	ldi	r18, 0xCD	; 205
    1fb4:	3c ec       	ldi	r19, 0xCC	; 204
    1fb6:	4c e4       	ldi	r20, 0x4C	; 76
    1fb8:	5f e3       	ldi	r21, 0x3F	; 63
    1fba:	6d 89       	ldd	r22, Y+21	; 0x15
    1fbc:	7e 89       	ldd	r23, Y+22	; 0x16
    1fbe:	8f 89       	ldd	r24, Y+23	; 0x17
    1fc0:	98 8d       	ldd	r25, Y+24	; 0x18
    1fc2:	9b d7       	rcall	.+3894   	; 0x2efa <__mulsf3>
    1fc4:	9b 01       	movw	r18, r22
    1fc6:	ac 01       	movw	r20, r24
    1fc8:	c7 01       	movw	r24, r14
    1fca:	b6 01       	movw	r22, r12
    1fcc:	06 d6       	rcall	.+3084   	; 0x2bda <__subsf3>
    1fce:	6d 8b       	std	Y+21, r22	; 0x15
    1fd0:	7e 8b       	std	Y+22, r23	; 0x16
    1fd2:	8f 8b       	std	Y+23, r24	; 0x17
    1fd4:	98 8f       	std	Y+24, r25	; 0x18
	qDot2 = 0.5f * (q1 * gx + q3 * gz - q4 * gy) - beta * s2;
    1fd6:	a5 01       	movw	r20, r10
    1fd8:	94 01       	movw	r18, r8
    1fda:	6d 8d       	ldd	r22, Y+29	; 0x1d
    1fdc:	7e 8d       	ldd	r23, Y+30	; 0x1e
    1fde:	8f 8d       	ldd	r24, Y+31	; 0x1f
    1fe0:	98 a1       	ldd	r25, Y+32	; 0x20
    1fe2:	8b d7       	rcall	.+3862   	; 0x2efa <__mulsf3>
    1fe4:	6b 01       	movw	r12, r22
    1fe6:	7c 01       	movw	r14, r24
    1fe8:	cf 56       	subi	r28, 0x6F	; 111
    1fea:	df 4f       	sbci	r29, 0xFF	; 255
    1fec:	28 81       	ld	r18, Y
    1fee:	39 81       	ldd	r19, Y+1	; 0x01
    1ff0:	4a 81       	ldd	r20, Y+2	; 0x02
    1ff2:	5b 81       	ldd	r21, Y+3	; 0x03
    1ff4:	c1 59       	subi	r28, 0x91	; 145
    1ff6:	d0 40       	sbci	r29, 0x00	; 0
    1ff8:	69 89       	ldd	r22, Y+17	; 0x11
    1ffa:	7a 89       	ldd	r23, Y+18	; 0x12
    1ffc:	8b 89       	ldd	r24, Y+19	; 0x13
    1ffe:	9c 89       	ldd	r25, Y+20	; 0x14
    2000:	7c d7       	rcall	.+3832   	; 0x2efa <__mulsf3>
    2002:	9b 01       	movw	r18, r22
    2004:	ac 01       	movw	r20, r24
    2006:	c7 01       	movw	r24, r14
    2008:	b6 01       	movw	r22, r12
    200a:	e8 d5       	rcall	.+3024   	; 0x2bdc <__addsf3>
    200c:	6b 01       	movw	r12, r22
    200e:	7c 01       	movw	r14, r24
    2010:	c3 57       	subi	r28, 0x73	; 115
    2012:	df 4f       	sbci	r29, 0xFF	; 255
    2014:	28 81       	ld	r18, Y
    2016:	39 81       	ldd	r19, Y+1	; 0x01
    2018:	4a 81       	ldd	r20, Y+2	; 0x02
    201a:	5b 81       	ldd	r21, Y+3	; 0x03
    201c:	cd 58       	subi	r28, 0x8D	; 141
    201e:	d0 40       	sbci	r29, 0x00	; 0
    2020:	6d 81       	ldd	r22, Y+5	; 0x05
    2022:	7e 81       	ldd	r23, Y+6	; 0x06
    2024:	8f 81       	ldd	r24, Y+7	; 0x07
    2026:	98 85       	ldd	r25, Y+8	; 0x08
    2028:	68 d7       	rcall	.+3792   	; 0x2efa <__mulsf3>
    202a:	9b 01       	movw	r18, r22
    202c:	ac 01       	movw	r20, r24
    202e:	c7 01       	movw	r24, r14
    2030:	b6 01       	movw	r22, r12
    2032:	d3 d5       	rcall	.+2982   	; 0x2bda <__subsf3>
    2034:	20 e0       	ldi	r18, 0x00	; 0
    2036:	30 e0       	ldi	r19, 0x00	; 0
    2038:	40 e0       	ldi	r20, 0x00	; 0
    203a:	5f e3       	ldi	r21, 0x3F	; 63
    203c:	5e d7       	rcall	.+3772   	; 0x2efa <__mulsf3>
    203e:	6b 01       	movw	r12, r22
    2040:	7c 01       	movw	r14, r24
    2042:	2d ec       	ldi	r18, 0xCD	; 205
    2044:	3c ec       	ldi	r19, 0xCC	; 204
    2046:	4c e4       	ldi	r20, 0x4C	; 76
    2048:	5f e3       	ldi	r21, 0x3F	; 63
    204a:	69 85       	ldd	r22, Y+9	; 0x09
    204c:	7a 85       	ldd	r23, Y+10	; 0x0a
    204e:	8b 85       	ldd	r24, Y+11	; 0x0b
    2050:	9c 85       	ldd	r25, Y+12	; 0x0c
    2052:	53 d7       	rcall	.+3750   	; 0x2efa <__mulsf3>
    2054:	9b 01       	movw	r18, r22
    2056:	ac 01       	movw	r20, r24
    2058:	c7 01       	movw	r24, r14
    205a:	b6 01       	movw	r22, r12
    205c:	be d5       	rcall	.+2940   	; 0x2bda <__subsf3>
    205e:	69 87       	std	Y+9, r22	; 0x09
    2060:	7a 87       	std	Y+10, r23	; 0x0a
    2062:	8b 87       	std	Y+11, r24	; 0x0b
    2064:	9c 87       	std	Y+12, r25	; 0x0c
    2066:	c3 57       	subi	r28, 0x73	; 115
	qDot3 = 0.5f * (q1 * gy - q2 * gz + q4 * gx) - beta * s3;
    2068:	df 4f       	sbci	r29, 0xFF	; 255
    206a:	28 81       	ld	r18, Y
    206c:	39 81       	ldd	r19, Y+1	; 0x01
    206e:	4a 81       	ldd	r20, Y+2	; 0x02
    2070:	5b 81       	ldd	r21, Y+3	; 0x03
    2072:	cd 58       	subi	r28, 0x8D	; 141
    2074:	d0 40       	sbci	r29, 0x00	; 0
    2076:	6d 8d       	ldd	r22, Y+29	; 0x1d
    2078:	7e 8d       	ldd	r23, Y+30	; 0x1e
    207a:	8f 8d       	ldd	r24, Y+31	; 0x1f
    207c:	98 a1       	ldd	r25, Y+32	; 0x20
    207e:	3d d7       	rcall	.+3706   	; 0x2efa <__mulsf3>
    2080:	6b 01       	movw	r12, r22
    2082:	7c 01       	movw	r14, r24
    2084:	cf 56       	subi	r28, 0x6F	; 111
    2086:	df 4f       	sbci	r29, 0xFF	; 255
    2088:	28 81       	ld	r18, Y
    208a:	39 81       	ldd	r19, Y+1	; 0x01
    208c:	4a 81       	ldd	r20, Y+2	; 0x02
    208e:	5b 81       	ldd	r21, Y+3	; 0x03
    2090:	c1 59       	subi	r28, 0x91	; 145
    2092:	d0 40       	sbci	r29, 0x00	; 0
    2094:	c3 01       	movw	r24, r6
    2096:	b2 01       	movw	r22, r4
    2098:	30 d7       	rcall	.+3680   	; 0x2efa <__mulsf3>
    209a:	9b 01       	movw	r18, r22
    209c:	ac 01       	movw	r20, r24
    209e:	c7 01       	movw	r24, r14
    20a0:	b6 01       	movw	r22, r12
    20a2:	9b d5       	rcall	.+2870   	; 0x2bda <__subsf3>
    20a4:	6b 01       	movw	r12, r22
    20a6:	7c 01       	movw	r14, r24
    20a8:	a5 01       	movw	r20, r10
    20aa:	94 01       	movw	r18, r8
    20ac:	6d 81       	ldd	r22, Y+5	; 0x05
    20ae:	7e 81       	ldd	r23, Y+6	; 0x06
    20b0:	8f 81       	ldd	r24, Y+7	; 0x07
    20b2:	98 85       	ldd	r25, Y+8	; 0x08
    20b4:	22 d7       	rcall	.+3652   	; 0x2efa <__mulsf3>
    20b6:	9b 01       	movw	r18, r22
    20b8:	ac 01       	movw	r20, r24
    20ba:	c7 01       	movw	r24, r14
    20bc:	b6 01       	movw	r22, r12
    20be:	8e d5       	rcall	.+2844   	; 0x2bdc <__addsf3>
    20c0:	20 e0       	ldi	r18, 0x00	; 0
    20c2:	30 e0       	ldi	r19, 0x00	; 0
    20c4:	40 e0       	ldi	r20, 0x00	; 0
    20c6:	5f e3       	ldi	r21, 0x3F	; 63
    20c8:	18 d7       	rcall	.+3632   	; 0x2efa <__mulsf3>
    20ca:	6b 01       	movw	r12, r22
    20cc:	7c 01       	movw	r14, r24
    20ce:	2d ec       	ldi	r18, 0xCD	; 205
    20d0:	3c ec       	ldi	r19, 0xCC	; 204
    20d2:	4c e4       	ldi	r20, 0x4C	; 76
    20d4:	5f e3       	ldi	r21, 0x3F	; 63
    20d6:	69 81       	ldd	r22, Y+1	; 0x01
    20d8:	7a 81       	ldd	r23, Y+2	; 0x02
    20da:	8b 81       	ldd	r24, Y+3	; 0x03
    20dc:	9c 81       	ldd	r25, Y+4	; 0x04
    20de:	0d d7       	rcall	.+3610   	; 0x2efa <__mulsf3>
    20e0:	9b 01       	movw	r18, r22
    20e2:	ac 01       	movw	r20, r24
    20e4:	c7 01       	movw	r24, r14
    20e6:	b6 01       	movw	r22, r12
    20e8:	78 d5       	rcall	.+2800   	; 0x2bda <__subsf3>
    20ea:	69 83       	std	Y+1, r22	; 0x01
    20ec:	7a 83       	std	Y+2, r23	; 0x02
    20ee:	8b 83       	std	Y+3, r24	; 0x03
    20f0:	9c 83       	std	Y+4, r25	; 0x04
    20f2:	cf 56       	subi	r28, 0x6F	; 111
	qDot4 = 0.5f * (q1 * gz + q2 * gy - q3 * gx) - beta * s4;
    20f4:	df 4f       	sbci	r29, 0xFF	; 255
    20f6:	28 81       	ld	r18, Y
    20f8:	39 81       	ldd	r19, Y+1	; 0x01
    20fa:	4a 81       	ldd	r20, Y+2	; 0x02
    20fc:	5b 81       	ldd	r21, Y+3	; 0x03
    20fe:	c1 59       	subi	r28, 0x91	; 145
    2100:	d0 40       	sbci	r29, 0x00	; 0
    2102:	6d 8d       	ldd	r22, Y+29	; 0x1d
    2104:	7e 8d       	ldd	r23, Y+30	; 0x1e
    2106:	8f 8d       	ldd	r24, Y+31	; 0x1f
    2108:	98 a1       	ldd	r25, Y+32	; 0x20
    210a:	f7 d6       	rcall	.+3566   	; 0x2efa <__mulsf3>
    210c:	6b 01       	movw	r12, r22
    210e:	7c 01       	movw	r14, r24
    2110:	c3 57       	subi	r28, 0x73	; 115
    2112:	df 4f       	sbci	r29, 0xFF	; 255
    2114:	28 81       	ld	r18, Y
    2116:	39 81       	ldd	r19, Y+1	; 0x01
    2118:	4a 81       	ldd	r20, Y+2	; 0x02
    211a:	5b 81       	ldd	r21, Y+3	; 0x03
    211c:	cd 58       	subi	r28, 0x8D	; 141
    211e:	d0 40       	sbci	r29, 0x00	; 0
    2120:	c3 01       	movw	r24, r6
    2122:	b2 01       	movw	r22, r4
    2124:	ea d6       	rcall	.+3540   	; 0x2efa <__mulsf3>
    2126:	9b 01       	movw	r18, r22
    2128:	ac 01       	movw	r20, r24
    212a:	c7 01       	movw	r24, r14
    212c:	b6 01       	movw	r22, r12
    212e:	56 d5       	rcall	.+2732   	; 0x2bdc <__addsf3>
    2130:	6b 01       	movw	r12, r22
    2132:	7c 01       	movw	r14, r24
    2134:	a5 01       	movw	r20, r10
    2136:	94 01       	movw	r18, r8
    2138:	69 89       	ldd	r22, Y+17	; 0x11
    213a:	7a 89       	ldd	r23, Y+18	; 0x12
    213c:	8b 89       	ldd	r24, Y+19	; 0x13
    213e:	9c 89       	ldd	r25, Y+20	; 0x14
    2140:	dc d6       	rcall	.+3512   	; 0x2efa <__mulsf3>
    2142:	9b 01       	movw	r18, r22
    2144:	ac 01       	movw	r20, r24
    2146:	c7 01       	movw	r24, r14
    2148:	b6 01       	movw	r22, r12
    214a:	47 d5       	rcall	.+2702   	; 0x2bda <__subsf3>
    214c:	20 e0       	ldi	r18, 0x00	; 0
    214e:	30 e0       	ldi	r19, 0x00	; 0
    2150:	40 e0       	ldi	r20, 0x00	; 0
    2152:	5f e3       	ldi	r21, 0x3F	; 63
    2154:	d2 d6       	rcall	.+3492   	; 0x2efa <__mulsf3>
    2156:	6b 01       	movw	r12, r22
    2158:	7c 01       	movw	r14, r24
    215a:	2d ec       	ldi	r18, 0xCD	; 205
    215c:	3c ec       	ldi	r19, 0xCC	; 204
    215e:	4c e4       	ldi	r20, 0x4C	; 76
    2160:	5f e3       	ldi	r21, 0x3F	; 63
    2162:	6d 85       	ldd	r22, Y+13	; 0x0d
    2164:	7e 85       	ldd	r23, Y+14	; 0x0e
    2166:	8f 85       	ldd	r24, Y+15	; 0x0f
    2168:	98 89       	ldd	r25, Y+16	; 0x10
    216a:	c7 d6       	rcall	.+3470   	; 0x2efa <__mulsf3>
    216c:	9b 01       	movw	r18, r22
    216e:	ac 01       	movw	r20, r24
    2170:	c7 01       	movw	r24, r14
    2172:	b6 01       	movw	r22, r12
    2174:	32 d5       	rcall	.+2660   	; 0x2bda <__subsf3>
    2176:	6b 01       	movw	r12, r22
    2178:	7c 01       	movw	r14, r24
    217a:	20 e0       	ldi	r18, 0x00	; 0

	// Integrate to yield quaternion
	q1 += qDot1 * deltat;
    217c:	30 e0       	ldi	r19, 0x00	; 0
    217e:	40 e8       	ldi	r20, 0x80	; 128
    2180:	5c e3       	ldi	r21, 0x3C	; 60
    2182:	6d 89       	ldd	r22, Y+21	; 0x15
    2184:	7e 89       	ldd	r23, Y+22	; 0x16
    2186:	8f 89       	ldd	r24, Y+23	; 0x17
    2188:	98 8d       	ldd	r25, Y+24	; 0x18
    218a:	b7 d6       	rcall	.+3438   	; 0x2efa <__mulsf3>
    218c:	9b 01       	movw	r18, r22
    218e:	ac 01       	movw	r20, r24
    2190:	6d 8d       	ldd	r22, Y+29	; 0x1d
    2192:	7e 8d       	ldd	r23, Y+30	; 0x1e
    2194:	8f 8d       	ldd	r24, Y+31	; 0x1f
    2196:	98 a1       	ldd	r25, Y+32	; 0x20
    2198:	21 d5       	rcall	.+2626   	; 0x2bdc <__addsf3>
    219a:	6d 8f       	std	Y+29, r22	; 0x1d
    219c:	7e 8f       	std	Y+30, r23	; 0x1e
    219e:	8f 8f       	std	Y+31, r24	; 0x1f
    21a0:	98 a3       	std	Y+32, r25	; 0x20
    21a2:	20 e0       	ldi	r18, 0x00	; 0
	q2 += qDot2 * deltat;
    21a4:	30 e0       	ldi	r19, 0x00	; 0
    21a6:	40 e8       	ldi	r20, 0x80	; 128
    21a8:	5c e3       	ldi	r21, 0x3C	; 60
    21aa:	69 85       	ldd	r22, Y+9	; 0x09
    21ac:	7a 85       	ldd	r23, Y+10	; 0x0a
    21ae:	8b 85       	ldd	r24, Y+11	; 0x0b
    21b0:	9c 85       	ldd	r25, Y+12	; 0x0c
    21b2:	a3 d6       	rcall	.+3398   	; 0x2efa <__mulsf3>
    21b4:	9b 01       	movw	r18, r22
    21b6:	ac 01       	movw	r20, r24
    21b8:	c3 01       	movw	r24, r6
    21ba:	b2 01       	movw	r22, r4
    21bc:	0f d5       	rcall	.+2590   	; 0x2bdc <__addsf3>
    21be:	2b 01       	movw	r4, r22
    21c0:	3c 01       	movw	r6, r24
    21c2:	20 e0       	ldi	r18, 0x00	; 0
	q3 += qDot3 * deltat;
    21c4:	30 e0       	ldi	r19, 0x00	; 0
    21c6:	40 e8       	ldi	r20, 0x80	; 128
    21c8:	5c e3       	ldi	r21, 0x3C	; 60
    21ca:	69 81       	ldd	r22, Y+1	; 0x01
    21cc:	7a 81       	ldd	r23, Y+2	; 0x02
    21ce:	8b 81       	ldd	r24, Y+3	; 0x03
    21d0:	9c 81       	ldd	r25, Y+4	; 0x04
    21d2:	93 d6       	rcall	.+3366   	; 0x2efa <__mulsf3>
    21d4:	9b 01       	movw	r18, r22
    21d6:	ac 01       	movw	r20, r24
    21d8:	69 89       	ldd	r22, Y+17	; 0x11
    21da:	7a 89       	ldd	r23, Y+18	; 0x12
    21dc:	8b 89       	ldd	r24, Y+19	; 0x13
    21de:	9c 89       	ldd	r25, Y+20	; 0x14
    21e0:	fd d4       	rcall	.+2554   	; 0x2bdc <__addsf3>
    21e2:	4b 01       	movw	r8, r22
    21e4:	5c 01       	movw	r10, r24
	q4 += qDot4 * deltat;
    21e6:	20 e0       	ldi	r18, 0x00	; 0
    21e8:	30 e0       	ldi	r19, 0x00	; 0
    21ea:	40 e8       	ldi	r20, 0x80	; 128
    21ec:	5c e3       	ldi	r21, 0x3C	; 60
    21ee:	c7 01       	movw	r24, r14
    21f0:	b6 01       	movw	r22, r12
    21f2:	83 d6       	rcall	.+3334   	; 0x2efa <__mulsf3>
    21f4:	9b 01       	movw	r18, r22
    21f6:	ac 01       	movw	r20, r24
    21f8:	6d 81       	ldd	r22, Y+5	; 0x05
    21fa:	7e 81       	ldd	r23, Y+6	; 0x06
    21fc:	8f 81       	ldd	r24, Y+7	; 0x07
    21fe:	98 85       	ldd	r25, Y+8	; 0x08
    2200:	ed d4       	rcall	.+2522   	; 0x2bdc <__addsf3>
    2202:	6d 83       	std	Y+5, r22	; 0x05
    2204:	7e 83       	std	Y+6, r23	; 0x06
    2206:	8f 83       	std	Y+7, r24	; 0x07
	norm = sqrtf(q1 * q1 + q2 * q2 + q3 * q3 + q4 * q4);    // normalise quaternion
    2208:	98 87       	std	Y+8, r25	; 0x08
    220a:	2d 8d       	ldd	r18, Y+29	; 0x1d
    220c:	3e 8d       	ldd	r19, Y+30	; 0x1e
    220e:	4f 8d       	ldd	r20, Y+31	; 0x1f
    2210:	58 a1       	ldd	r21, Y+32	; 0x20
    2212:	ca 01       	movw	r24, r20
    2214:	b9 01       	movw	r22, r18
    2216:	71 d6       	rcall	.+3298   	; 0x2efa <__mulsf3>
    2218:	6b 01       	movw	r12, r22
    221a:	7c 01       	movw	r14, r24
    221c:	a3 01       	movw	r20, r6
    221e:	92 01       	movw	r18, r4
    2220:	c3 01       	movw	r24, r6
    2222:	b2 01       	movw	r22, r4
    2224:	6a d6       	rcall	.+3284   	; 0x2efa <__mulsf3>
    2226:	9b 01       	movw	r18, r22
    2228:	ac 01       	movw	r20, r24
    222a:	c7 01       	movw	r24, r14
    222c:	b6 01       	movw	r22, r12
    222e:	d6 d4       	rcall	.+2476   	; 0x2bdc <__addsf3>
    2230:	6b 01       	movw	r12, r22
    2232:	7c 01       	movw	r14, r24
    2234:	a5 01       	movw	r20, r10
    2236:	94 01       	movw	r18, r8
    2238:	c5 01       	movw	r24, r10
    223a:	b4 01       	movw	r22, r8
    223c:	5e d6       	rcall	.+3260   	; 0x2efa <__mulsf3>
    223e:	9b 01       	movw	r18, r22
    2240:	ac 01       	movw	r20, r24
    2242:	c7 01       	movw	r24, r14
    2244:	b6 01       	movw	r22, r12
    2246:	ca d4       	rcall	.+2452   	; 0x2bdc <__addsf3>
    2248:	6b 01       	movw	r12, r22
    224a:	7c 01       	movw	r14, r24
    224c:	2d 81       	ldd	r18, Y+5	; 0x05
    224e:	3e 81       	ldd	r19, Y+6	; 0x06
    2250:	4f 81       	ldd	r20, Y+7	; 0x07
    2252:	58 85       	ldd	r21, Y+8	; 0x08
    2254:	ca 01       	movw	r24, r20
    2256:	b9 01       	movw	r22, r18
    2258:	50 d6       	rcall	.+3232   	; 0x2efa <__mulsf3>
    225a:	9b 01       	movw	r18, r22
    225c:	ac 01       	movw	r20, r24
    225e:	c7 01       	movw	r24, r14
    2260:	b6 01       	movw	r22, r12
    2262:	bc d4       	rcall	.+2424   	; 0x2bdc <__addsf3>
    2264:	b1 d6       	rcall	.+3426   	; 0x2fc8 <sqrt>
    2266:	9b 01       	movw	r18, r22
    2268:	ac 01       	movw	r20, r24
    226a:	60 e0       	ldi	r22, 0x00	; 0
	norm = 1.0f/norm;
    226c:	70 e0       	ldi	r23, 0x00	; 0
    226e:	80 e8       	ldi	r24, 0x80	; 128
    2270:	9f e3       	ldi	r25, 0x3F	; 63
    2272:	18 d5       	rcall	.+2608   	; 0x2ca4 <__divsf3>
    2274:	6b 01       	movw	r12, r22
    2276:	7c 01       	movw	r14, r24
    2278:	9b 01       	movw	r18, r22
    227a:	ac 01       	movw	r20, r24
	q[0] = q1 * norm;
    227c:	6d 8d       	ldd	r22, Y+29	; 0x1d
    227e:	7e 8d       	ldd	r23, Y+30	; 0x1e
    2280:	8f 8d       	ldd	r24, Y+31	; 0x1f
    2282:	98 a1       	ldd	r25, Y+32	; 0x20
    2284:	3a d6       	rcall	.+3188   	; 0x2efa <__mulsf3>
    2286:	d1 01       	movw	r26, r2
    2288:	6d 93       	st	X+, r22
    228a:	7d 93       	st	X+, r23
    228c:	8d 93       	st	X+, r24
    228e:	9c 93       	st	X, r25
    2290:	13 97       	sbiw	r26, 0x03	; 3
    2292:	a7 01       	movw	r20, r14
    2294:	96 01       	movw	r18, r12
    2296:	c3 01       	movw	r24, r6
	q[1] = q2 * norm;
    2298:	b2 01       	movw	r22, r4
    229a:	2f d6       	rcall	.+3166   	; 0x2efa <__mulsf3>
    229c:	f1 01       	movw	r30, r2
    229e:	64 83       	std	Z+4, r22	; 0x04
    22a0:	75 83       	std	Z+5, r23	; 0x05
    22a2:	86 83       	std	Z+6, r24	; 0x06
    22a4:	97 83       	std	Z+7, r25	; 0x07
    22a6:	a7 01       	movw	r20, r14
    22a8:	96 01       	movw	r18, r12
    22aa:	c5 01       	movw	r24, r10
    22ac:	b4 01       	movw	r22, r8
	q[2] = q3 * norm;
    22ae:	25 d6       	rcall	.+3146   	; 0x2efa <__mulsf3>
    22b0:	d1 01       	movw	r26, r2
    22b2:	18 96       	adiw	r26, 0x08	; 8
    22b4:	6d 93       	st	X+, r22
    22b6:	7d 93       	st	X+, r23
    22b8:	8d 93       	st	X+, r24
    22ba:	9c 93       	st	X, r25
    22bc:	1b 97       	sbiw	r26, 0x0b	; 11
    22be:	a7 01       	movw	r20, r14
    22c0:	96 01       	movw	r18, r12
    22c2:	6d 81       	ldd	r22, Y+5	; 0x05
    22c4:	7e 81       	ldd	r23, Y+6	; 0x06
    22c6:	8f 81       	ldd	r24, Y+7	; 0x07
	q[3] = q4 * norm;
    22c8:	98 85       	ldd	r25, Y+8	; 0x08
    22ca:	17 d6       	rcall	.+3118   	; 0x2efa <__mulsf3>
    22cc:	f1 01       	movw	r30, r2
    22ce:	64 87       	std	Z+12, r22	; 0x0c
    22d0:	75 87       	std	Z+13, r23	; 0x0d
    22d2:	86 87       	std	Z+14, r24	; 0x0e
    22d4:	97 87       	std	Z+15, r25	; 0x0f
    22d6:	c8 58       	subi	r28, 0x88	; 136
    22d8:	df 4f       	sbci	r29, 0xFF	; 255
    22da:	0f b6       	in	r0, 0x3f	; 63
    22dc:	f8 94       	cli
    22de:	de bf       	out	0x3e, r29	; 62
    22e0:	0f be       	out	0x3f, r0	; 63

    22e2:	cd bf       	out	0x3d, r28	; 61
    22e4:	df 91       	pop	r29
    22e6:	cf 91       	pop	r28
    22e8:	1f 91       	pop	r17
    22ea:	0f 91       	pop	r16
    22ec:	ff 90       	pop	r15
    22ee:	ef 90       	pop	r14
    22f0:	df 90       	pop	r13
    22f2:	cf 90       	pop	r12
    22f4:	bf 90       	pop	r11
    22f6:	af 90       	pop	r10
    22f8:	9f 90       	pop	r9
    22fa:	8f 90       	pop	r8
    22fc:	7f 90       	pop	r7
    22fe:	6f 90       	pop	r6
    2300:	5f 90       	pop	r5
    2302:	4f 90       	pop	r4
    2304:	3f 90       	pop	r3
    2306:	2f 90       	pop	r2
    2308:	08 95       	ret

0000230a <timer0_init>:
volatile uint8_t flag = 0;  //  

//  0  
void timer0_init() {
	// CTC   (WGM01 = 1, WGM00 = 0)
	TCCR0 = (1 << WGM01);
    230a:	88 e0       	ldi	r24, 0x08	; 8
    230c:	83 bf       	out	0x33, r24	; 51
	//     (64Hz  )
	OCR0 = 29;  // 16MHz , 1024    64Hz 
    230e:	8d e1       	ldi	r24, 0x1D	; 29
    2310:	81 bf       	out	0x31, r24	; 49
	//  1024  (CS02 = 1, CS01 = 0, CS00 = 1)
	TCCR0 |= (1 << CS02) | (1 << CS00);
    2312:	83 b7       	in	r24, 0x33	; 51
    2314:	85 60       	ori	r24, 0x05	; 5
    2316:	83 bf       	out	0x33, r24	; 51
	//    
	TIMSK |= (1 << OCIE0);
    2318:	87 b7       	in	r24, 0x37	; 55
    231a:	82 60       	ori	r24, 0x02	; 2
    231c:	87 bf       	out	0x37, r24	; 55
    231e:	08 95       	ret

00002320 <__vector_15>:
}

ISR(TIMER0_COMP_vect) {
    2320:	1f 92       	push	r1
    2322:	0f 92       	push	r0
    2324:	0f b6       	in	r0, 0x3f	; 63
    2326:	0f 92       	push	r0
    2328:	11 24       	eor	r1, r1
    232a:	8f 93       	push	r24
	flag = 1;  //   
    232c:	81 e0       	ldi	r24, 0x01	; 1
    232e:	80 93 02 01 	sts	0x0102, r24	; 0x800102 <__data_end>
}
    2332:	8f 91       	pop	r24
    2334:	0f 90       	pop	r0
    2336:	0f be       	out	0x3f, r0	; 63
    2338:	0f 90       	pop	r0
    233a:	1f 90       	pop	r1
    233c:	18 95       	reti

0000233e <__vector_18>:
ISR(USART0_RX_vect) {
    233e:	1f 92       	push	r1
    2340:	0f 92       	push	r0
    2342:	0f b6       	in	r0, 0x3f	; 63
    2344:	0f 92       	push	r0
    2346:	11 24       	eor	r1, r1
    2348:	0b b6       	in	r0, 0x3b	; 59
    234a:	0f 92       	push	r0
    234c:	2f 93       	push	r18
    234e:	3f 93       	push	r19
    2350:	4f 93       	push	r20
    2352:	5f 93       	push	r21
    2354:	6f 93       	push	r22
    2356:	7f 93       	push	r23
    2358:	8f 93       	push	r24
    235a:	9f 93       	push	r25
    235c:	af 93       	push	r26
    235e:	bf 93       	push	r27
    2360:	ef 93       	push	r30
    2362:	ff 93       	push	r31
	
	UART0_receive_string(uart0_buffer, '\n');
    2364:	6a e0       	ldi	r22, 0x0A	; 10
    2366:	83 e0       	ldi	r24, 0x03	; 3
    2368:	91 e0       	ldi	r25, 0x01	; 1
    236a:	91 d3       	rcall	.+1826   	; 0x2a8e <UART0_receive_string>
}
    236c:	ff 91       	pop	r31
    236e:	ef 91       	pop	r30
    2370:	bf 91       	pop	r27
    2372:	af 91       	pop	r26
    2374:	9f 91       	pop	r25
    2376:	8f 91       	pop	r24
    2378:	7f 91       	pop	r23
    237a:	6f 91       	pop	r22
    237c:	5f 91       	pop	r21
    237e:	4f 91       	pop	r20
    2380:	3f 91       	pop	r19
    2382:	2f 91       	pop	r18
    2384:	0f 90       	pop	r0
    2386:	0b be       	out	0x3b, r0	; 59
    2388:	0f 90       	pop	r0
    238a:	0f be       	out	0x3f, r0	; 63
    238c:	0f 90       	pop	r0
    238e:	1f 90       	pop	r1
    2390:	18 95       	reti

00002392 <__vector_30>:
ISR(USART1_RX_vect) {
    2392:	1f 92       	push	r1
    2394:	0f 92       	push	r0
    2396:	0f b6       	in	r0, 0x3f	; 63
    2398:	0f 92       	push	r0
    239a:	11 24       	eor	r1, r1
    239c:	0b b6       	in	r0, 0x3b	; 59
    239e:	0f 92       	push	r0
    23a0:	2f 93       	push	r18
    23a2:	3f 93       	push	r19
    23a4:	4f 93       	push	r20
    23a6:	5f 93       	push	r21
    23a8:	6f 93       	push	r22
    23aa:	7f 93       	push	r23
    23ac:	8f 93       	push	r24
    23ae:	9f 93       	push	r25
    23b0:	af 93       	push	r26
    23b2:	bf 93       	push	r27
    23b4:	ef 93       	push	r30
    23b6:	ff 93       	push	r31

	UART1_receive_string(uart1_buffer, '\n');
    23b8:	6a e0       	ldi	r22, 0x0A	; 10
    23ba:	83 e8       	ldi	r24, 0x83	; 131
    23bc:	91 e0       	ldi	r25, 0x01	; 1
    23be:	b8 d3       	rcall	.+1904   	; 0x2b30 <UART1_receive_string>
	
}
    23c0:	ff 91       	pop	r31
    23c2:	ef 91       	pop	r30
    23c4:	bf 91       	pop	r27
    23c6:	af 91       	pop	r26
    23c8:	9f 91       	pop	r25
    23ca:	8f 91       	pop	r24
    23cc:	7f 91       	pop	r23
    23ce:	6f 91       	pop	r22
    23d0:	5f 91       	pop	r21
    23d2:	4f 91       	pop	r20
    23d4:	3f 91       	pop	r19
    23d6:	2f 91       	pop	r18
    23d8:	0f 90       	pop	r0
    23da:	0b be       	out	0x3b, r0	; 59
    23dc:	0f 90       	pop	r0
    23de:	0f be       	out	0x3f, r0	; 63
    23e0:	0f 90       	pop	r0
    23e2:	1f 90       	pop	r1
    23e4:	18 95       	reti

000023e6 <main>:


int main(void) {
    23e6:	cf 93       	push	r28
    23e8:	df 93       	push	r29
    23ea:	cd b7       	in	r28, 0x3d	; 61
    23ec:	de b7       	in	r29, 0x3e	; 62
    23ee:	e6 97       	sbiw	r28, 0x36	; 54
    23f0:	0f b6       	in	r0, 0x3f	; 63
    23f2:	f8 94       	cli
    23f4:	de bf       	out	0x3e, r29	; 62
    23f6:	0f be       	out	0x3f, r0	; 63
    23f8:	cd bf       	out	0x3d, r28	; 61
	int16_t accel[3], gyro[3], mag[3];
	//float magBias[3], magScale[3];
	float q[4] = {1.0f, 0.0f, 0.0f, 0.0f};
    23fa:	80 e0       	ldi	r24, 0x00	; 0
    23fc:	90 e0       	ldi	r25, 0x00	; 0
    23fe:	a0 e8       	ldi	r26, 0x80	; 128
    2400:	bf e3       	ldi	r27, 0x3F	; 63
    2402:	8b 8b       	std	Y+19, r24	; 0x13
    2404:	9c 8b       	std	Y+20, r25	; 0x14
    2406:	ad 8b       	std	Y+21, r26	; 0x15
    2408:	be 8b       	std	Y+22, r27	; 0x16
    240a:	1f 8a       	std	Y+23, r1	; 0x17
    240c:	18 8e       	std	Y+24, r1	; 0x18
    240e:	19 8e       	std	Y+25, r1	; 0x19
    2410:	1a 8e       	std	Y+26, r1	; 0x1a
    2412:	1b 8e       	std	Y+27, r1	; 0x1b
    2414:	1c 8e       	std	Y+28, r1	; 0x1c
    2416:	1d 8e       	std	Y+29, r1	; 0x1d
    2418:	1e 8e       	std	Y+30, r1	; 0x1e
    241a:	1f 8e       	std	Y+31, r1	; 0x1f
    241c:	18 a2       	std	Y+32, r1	; 0x20
    241e:	19 a2       	std	Y+33, r1	; 0x21
    2420:	1a a2       	std	Y+34, r1	; 0x22
	int index = 0;
	UART1_init(57600);
    2422:	60 e0       	ldi	r22, 0x00	; 0
    2424:	71 ee       	ldi	r23, 0xE1	; 225
    2426:	80 e0       	ldi	r24, 0x00	; 0
    2428:	90 e0       	ldi	r25, 0x00	; 0
    242a:	42 d3       	rcall	.+1668   	; 0x2ab0 <UART1_init>
	//UART1_transmit('A');
	//UART1_receive();
	
	//UART1_transmit_string_LF("Start initiation!!!");
	I2C_Init();
    242c:	ad d3       	rcall	.+1882   	; 0x2b88 <I2C_Init>
	MPU9250_Init();
    242e:	22 d2       	rcall	.+1092   	; 0x2874 <MPU9250_Init>
	AK8963_Init();
    2430:	c1 d2       	rcall	.+1410   	; 0x29b4 <AK8963_Init>
    2432:	6b df       	rcall	.-298    	; 0x230a <timer0_init>
	
	//UART1_transmit_string_LF("Complete initiation!!!");
	timer0_init();
    2434:	78 94       	sei
    2436:	be 01       	movw	r22, r28
	
	sei();
    2438:	69 5f       	subi	r22, 0xF9	; 249
	
	Read_Accel_Gyro(accel, gyro);
    243a:	7f 4f       	sbci	r23, 0xFF	; 255
    243c:	ce 01       	movw	r24, r28
    243e:	01 96       	adiw	r24, 0x01	; 1
    2440:	2f d2       	rcall	.+1118   	; 0x28a0 <Read_Accel_Gyro>
    2442:	ce 01       	movw	r24, r28
	Read_Magnetometer(mag);
    2444:	0d 96       	adiw	r24, 0x0d	; 13
    2446:	d2 d2       	rcall	.+1444   	; 0x29ec <Read_Magnetometer>
    2448:	6b 81       	ldd	r22, Y+3	; 0x03
	float ax = accel[1] * 9.81 * 2.0 / 32768.0; //  2g  16bit   -> [m/s^2]
    244a:	7c 81       	ldd	r23, Y+4	; 0x04
    244c:	07 2e       	mov	r0, r23
    244e:	00 0c       	add	r0, r0
    2450:	88 0b       	sbc	r24, r24
    2452:	99 0b       	sbc	r25, r25
    2454:	c2 d4       	rcall	.+2436   	; 0x2dda <__floatsisf>
    2456:	23 ec       	ldi	r18, 0xC3	; 195
    2458:	35 ef       	ldi	r19, 0xF5	; 245
    245a:	4c e1       	ldi	r20, 0x1C	; 28
    245c:	51 e4       	ldi	r21, 0x41	; 65
    245e:	4d d5       	rcall	.+2714   	; 0x2efa <__mulsf3>
    2460:	9b 01       	movw	r18, r22
    2462:	ac 01       	movw	r20, r24
    2464:	bb d3       	rcall	.+1910   	; 0x2bdc <__addsf3>
    2466:	20 e0       	ldi	r18, 0x00	; 0
    2468:	30 e0       	ldi	r19, 0x00	; 0
    246a:	40 e0       	ldi	r20, 0x00	; 0
    246c:	58 e3       	ldi	r21, 0x38	; 56
    246e:	45 d5       	rcall	.+2698   	; 0x2efa <__mulsf3>
    2470:	6b a3       	std	Y+35, r22	; 0x23
    2472:	7c a3       	std	Y+36, r23	; 0x24
    2474:	8d a3       	std	Y+37, r24	; 0x25
    2476:	9e a3       	std	Y+38, r25	; 0x26
    2478:	69 81       	ldd	r22, Y+1	; 0x01
	float ay = accel[0] * 9.81 * 2.0 / 32768.0;
    247a:	7a 81       	ldd	r23, Y+2	; 0x02
    247c:	07 2e       	mov	r0, r23
    247e:	00 0c       	add	r0, r0
    2480:	88 0b       	sbc	r24, r24
    2482:	99 0b       	sbc	r25, r25
    2484:	aa d4       	rcall	.+2388   	; 0x2dda <__floatsisf>
    2486:	23 ec       	ldi	r18, 0xC3	; 195
    2488:	35 ef       	ldi	r19, 0xF5	; 245
    248a:	4c e1       	ldi	r20, 0x1C	; 28
    248c:	51 e4       	ldi	r21, 0x41	; 65
    248e:	35 d5       	rcall	.+2666   	; 0x2efa <__mulsf3>
    2490:	9b 01       	movw	r18, r22
    2492:	ac 01       	movw	r20, r24
    2494:	a3 d3       	rcall	.+1862   	; 0x2bdc <__addsf3>
    2496:	20 e0       	ldi	r18, 0x00	; 0
    2498:	30 e0       	ldi	r19, 0x00	; 0
    249a:	40 e0       	ldi	r20, 0x00	; 0
    249c:	58 e3       	ldi	r21, 0x38	; 56
    249e:	2d d5       	rcall	.+2650   	; 0x2efa <__mulsf3>
    24a0:	6f a3       	std	Y+39, r22	; 0x27
    24a2:	78 a7       	std	Y+40, r23	; 0x28
    24a4:	89 a7       	std	Y+41, r24	; 0x29
    24a6:	9a a7       	std	Y+42, r25	; 0x2a
    24a8:	6d 81       	ldd	r22, Y+5	; 0x05
	float az = - accel[2] * 9.81 * 2.0 / 32768.0;
    24aa:	7e 81       	ldd	r23, Y+6	; 0x06
    24ac:	71 95       	neg	r23
    24ae:	61 95       	neg	r22
    24b0:	71 09       	sbc	r23, r1
    24b2:	07 2e       	mov	r0, r23
    24b4:	00 0c       	add	r0, r0
    24b6:	88 0b       	sbc	r24, r24
    24b8:	99 0b       	sbc	r25, r25
    24ba:	8f d4       	rcall	.+2334   	; 0x2dda <__floatsisf>
    24bc:	23 ec       	ldi	r18, 0xC3	; 195
    24be:	35 ef       	ldi	r19, 0xF5	; 245
    24c0:	4c e1       	ldi	r20, 0x1C	; 28
    24c2:	51 e4       	ldi	r21, 0x41	; 65
    24c4:	1a d5       	rcall	.+2612   	; 0x2efa <__mulsf3>
    24c6:	9b 01       	movw	r18, r22
    24c8:	ac 01       	movw	r20, r24
    24ca:	88 d3       	rcall	.+1808   	; 0x2bdc <__addsf3>
    24cc:	20 e0       	ldi	r18, 0x00	; 0
    24ce:	30 e0       	ldi	r19, 0x00	; 0
    24d0:	40 e0       	ldi	r20, 0x00	; 0
    24d2:	58 e3       	ldi	r21, 0x38	; 56
    24d4:	12 d5       	rcall	.+2596   	; 0x2efa <__mulsf3>
    24d6:	6b 01       	movw	r12, r22
    24d8:	7c 01       	movw	r14, r24
    24da:	8d 85       	ldd	r24, Y+13	; 0x0d
    24dc:	9e 85       	ldd	r25, Y+14	; 0x0e
	float gx = gyro[1] * (250.0 / 32768.0) * (M_PI / 180.0); //  250deg/s  16bit   -> [rad/s]
	float gy = gyro[0] * (250.0 / 32768.0) * (M_PI / 180.0);
	float gz = - gyro[2] * (250.0 / 32768.0) * (M_PI / 180.0);
	float mx = mag[0] * 4912 / 32760.0; //  4912uT  16bit   -> [uT]
    24de:	00 e3       	ldi	r16, 0x30	; 48
    24e0:	13 e1       	ldi	r17, 0x13	; 19
    24e2:	80 9f       	mul	r24, r16
    24e4:	b0 01       	movw	r22, r0
    24e6:	81 9f       	mul	r24, r17
    24e8:	70 0d       	add	r23, r0
    24ea:	90 9f       	mul	r25, r16
    24ec:	70 0d       	add	r23, r0
    24ee:	11 24       	eor	r1, r1
    24f0:	07 2e       	mov	r0, r23
    24f2:	00 0c       	add	r0, r0
    24f4:	88 0b       	sbc	r24, r24
    24f6:	99 0b       	sbc	r25, r25
    24f8:	70 d4       	rcall	.+2272   	; 0x2dda <__floatsisf>
    24fa:	20 e0       	ldi	r18, 0x00	; 0
    24fc:	30 ef       	ldi	r19, 0xF0	; 240
    24fe:	4f ef       	ldi	r20, 0xFF	; 255
    2500:	56 e4       	ldi	r21, 0x46	; 70
    2502:	d0 d3       	rcall	.+1952   	; 0x2ca4 <__divsf3>
    2504:	4b 01       	movw	r8, r22
    2506:	5c 01       	movw	r10, r24
    2508:	8f 85       	ldd	r24, Y+15	; 0x0f
	float my = mag[1] * 4912 / 32760.0; // x, y  z -   -> mpu9250  ak8963    mpu9250  
    250a:	98 89       	ldd	r25, Y+16	; 0x10
    250c:	80 9f       	mul	r24, r16
    250e:	b0 01       	movw	r22, r0
    2510:	81 9f       	mul	r24, r17
    2512:	70 0d       	add	r23, r0
    2514:	90 9f       	mul	r25, r16
    2516:	70 0d       	add	r23, r0
    2518:	11 24       	eor	r1, r1
    251a:	07 2e       	mov	r0, r23
    251c:	00 0c       	add	r0, r0
    251e:	88 0b       	sbc	r24, r24
    2520:	99 0b       	sbc	r25, r25
    2522:	5b d4       	rcall	.+2230   	; 0x2dda <__floatsisf>
    2524:	20 e0       	ldi	r18, 0x00	; 0
    2526:	30 ef       	ldi	r19, 0xF0	; 240
    2528:	4f ef       	ldi	r20, 0xFF	; 255
    252a:	56 e4       	ldi	r21, 0x46	; 70
    252c:	bb d3       	rcall	.+1910   	; 0x2ca4 <__divsf3>
    252e:	76 2e       	mov	r7, r22
    2530:	67 2e       	mov	r6, r23
    2532:	28 2e       	mov	r2, r24
    2534:	39 2e       	mov	r3, r25
    2536:	89 89       	ldd	r24, Y+17	; 0x11
	float mz = mag[2] * 4912 / 32760.0;
    2538:	9a 89       	ldd	r25, Y+18	; 0x12
    253a:	80 9f       	mul	r24, r16
    253c:	b0 01       	movw	r22, r0
    253e:	81 9f       	mul	r24, r17
    2540:	70 0d       	add	r23, r0
    2542:	90 9f       	mul	r25, r16
    2544:	70 0d       	add	r23, r0
    2546:	11 24       	eor	r1, r1
    2548:	07 2e       	mov	r0, r23
    254a:	00 0c       	add	r0, r0
    254c:	88 0b       	sbc	r24, r24
    254e:	99 0b       	sbc	r25, r25
    2550:	44 d4       	rcall	.+2184   	; 0x2dda <__floatsisf>
    2552:	20 e0       	ldi	r18, 0x00	; 0
    2554:	30 ef       	ldi	r19, 0xF0	; 240
    2556:	4f ef       	ldi	r20, 0xFF	; 255
    2558:	56 e4       	ldi	r21, 0x46	; 70
    255a:	a4 d3       	rcall	.+1864   	; 0x2ca4 <__divsf3>
    255c:	9f 93       	push	r25
    255e:	8f 93       	push	r24
    2560:	7f 93       	push	r23
	AHRS_Init(q, ax, ay, az, mx, my, mz);
    2562:	6f 93       	push	r22
    2564:	3f 92       	push	r3
    2566:	2f 92       	push	r2
    2568:	6f 92       	push	r6
    256a:	7f 92       	push	r7
    256c:	0f a1       	ldd	r16, Y+39	; 0x27
    256e:	18 a5       	ldd	r17, Y+40	; 0x28
    2570:	29 a5       	ldd	r18, Y+41	; 0x29
    2572:	3a a5       	ldd	r19, Y+42	; 0x2a
    2574:	4b a1       	ldd	r20, Y+35	; 0x23
    2576:	5c a1       	ldd	r21, Y+36	; 0x24
    2578:	6d a1       	ldd	r22, Y+37	; 0x25
    257a:	7e a1       	ldd	r23, Y+38	; 0x26
    257c:	ce 01       	movw	r24, r28
    257e:	43 96       	adiw	r24, 0x13	; 19
    2580:	0e 94 52 04 	call	0x8a4	; 0x8a4 <AHRS_Init>
    2584:	0f b6       	in	r0, 0x3f	; 63
    2586:	f8 94       	cli
    2588:	de bf       	out	0x3e, r29	; 62
    258a:	0f be       	out	0x3f, r0	; 63
    258c:	cd bf       	out	0x3d, r28	; 61

int main(void) {
	int16_t accel[3], gyro[3], mag[3];
	//float magBias[3], magScale[3];
	float q[4] = {1.0f, 0.0f, 0.0f, 0.0f};
	int index = 0;
    258e:	61 2c       	mov	r6, r1
	
	
	//Calibrate_AK8963(magBias, magScale);

	while (1) {
		if (flag) {
    2590:	71 2c       	mov	r7, r1
    2592:	80 91 02 01 	lds	r24, 0x0102	; 0x800102 <__data_end>
			Read_Accel_Gyro(accel, gyro);
    2596:	88 23       	and	r24, r24
    2598:	e1 f3       	breq	.-8      	; 0x2592 <main+0x1ac>
    259a:	be 01       	movw	r22, r28
    259c:	69 5f       	subi	r22, 0xF9	; 249
    259e:	7f 4f       	sbci	r23, 0xFF	; 255
    25a0:	ce 01       	movw	r24, r28
			Read_Magnetometer(mag);
    25a2:	01 96       	adiw	r24, 0x01	; 1
    25a4:	7d d1       	rcall	.+762    	; 0x28a0 <Read_Accel_Gyro>
    25a6:	ce 01       	movw	r24, r28
    25a8:	0d 96       	adiw	r24, 0x0d	; 13
			
			ax = accel[1] * 9.81 * 2.0 / 32768.0; //  2g  16bit   -> [m/s^2]
    25aa:	20 d2       	rcall	.+1088   	; 0x29ec <Read_Magnetometer>
    25ac:	6b 81       	ldd	r22, Y+3	; 0x03
    25ae:	7c 81       	ldd	r23, Y+4	; 0x04
    25b0:	07 2e       	mov	r0, r23
    25b2:	00 0c       	add	r0, r0
    25b4:	88 0b       	sbc	r24, r24
    25b6:	99 0b       	sbc	r25, r25
    25b8:	10 d4       	rcall	.+2080   	; 0x2dda <__floatsisf>
    25ba:	23 ec       	ldi	r18, 0xC3	; 195
    25bc:	35 ef       	ldi	r19, 0xF5	; 245
    25be:	4c e1       	ldi	r20, 0x1C	; 28
    25c0:	51 e4       	ldi	r21, 0x41	; 65
    25c2:	9b d4       	rcall	.+2358   	; 0x2efa <__mulsf3>
    25c4:	9b 01       	movw	r18, r22
    25c6:	ac 01       	movw	r20, r24
    25c8:	09 d3       	rcall	.+1554   	; 0x2bdc <__addsf3>
    25ca:	20 e0       	ldi	r18, 0x00	; 0
    25cc:	30 e0       	ldi	r19, 0x00	; 0
    25ce:	40 e0       	ldi	r20, 0x00	; 0
    25d0:	58 e3       	ldi	r21, 0x38	; 56
    25d2:	93 d4       	rcall	.+2342   	; 0x2efa <__mulsf3>
    25d4:	6b a3       	std	Y+35, r22	; 0x23
    25d6:	7c a3       	std	Y+36, r23	; 0x24
    25d8:	8d a3       	std	Y+37, r24	; 0x25
			ay = accel[0] * 9.81 * 2.0 / 32768.0;
    25da:	9e a3       	std	Y+38, r25	; 0x26
    25dc:	69 81       	ldd	r22, Y+1	; 0x01
    25de:	7a 81       	ldd	r23, Y+2	; 0x02
    25e0:	07 2e       	mov	r0, r23
    25e2:	00 0c       	add	r0, r0
    25e4:	88 0b       	sbc	r24, r24
    25e6:	99 0b       	sbc	r25, r25
    25e8:	f8 d3       	rcall	.+2032   	; 0x2dda <__floatsisf>
    25ea:	23 ec       	ldi	r18, 0xC3	; 195
    25ec:	35 ef       	ldi	r19, 0xF5	; 245
    25ee:	4c e1       	ldi	r20, 0x1C	; 28
    25f0:	51 e4       	ldi	r21, 0x41	; 65
    25f2:	83 d4       	rcall	.+2310   	; 0x2efa <__mulsf3>
    25f4:	9b 01       	movw	r18, r22
    25f6:	ac 01       	movw	r20, r24
    25f8:	f1 d2       	rcall	.+1506   	; 0x2bdc <__addsf3>
    25fa:	20 e0       	ldi	r18, 0x00	; 0
    25fc:	30 e0       	ldi	r19, 0x00	; 0
    25fe:	40 e0       	ldi	r20, 0x00	; 0
    2600:	58 e3       	ldi	r21, 0x38	; 56
    2602:	7b d4       	rcall	.+2294   	; 0x2efa <__mulsf3>
    2604:	6f a3       	std	Y+39, r22	; 0x27
    2606:	78 a7       	std	Y+40, r23	; 0x28
    2608:	89 a7       	std	Y+41, r24	; 0x29
			az = - accel[2] * 9.81 * 2.0 / 32768.0;
    260a:	9a a7       	std	Y+42, r25	; 0x2a
    260c:	6d 81       	ldd	r22, Y+5	; 0x05
    260e:	7e 81       	ldd	r23, Y+6	; 0x06
    2610:	71 95       	neg	r23
    2612:	61 95       	neg	r22
    2614:	71 09       	sbc	r23, r1
    2616:	07 2e       	mov	r0, r23
    2618:	00 0c       	add	r0, r0
    261a:	88 0b       	sbc	r24, r24
    261c:	99 0b       	sbc	r25, r25
    261e:	dd d3       	rcall	.+1978   	; 0x2dda <__floatsisf>
    2620:	23 ec       	ldi	r18, 0xC3	; 195
    2622:	35 ef       	ldi	r19, 0xF5	; 245
    2624:	4c e1       	ldi	r20, 0x1C	; 28
    2626:	51 e4       	ldi	r21, 0x41	; 65
    2628:	68 d4       	rcall	.+2256   	; 0x2efa <__mulsf3>
    262a:	9b 01       	movw	r18, r22
    262c:	ac 01       	movw	r20, r24
    262e:	d6 d2       	rcall	.+1452   	; 0x2bdc <__addsf3>
    2630:	20 e0       	ldi	r18, 0x00	; 0
    2632:	30 e0       	ldi	r19, 0x00	; 0
    2634:	40 e0       	ldi	r20, 0x00	; 0
    2636:	58 e3       	ldi	r21, 0x38	; 56
    2638:	60 d4       	rcall	.+2240   	; 0x2efa <__mulsf3>
    263a:	6b 01       	movw	r12, r22
			gx = gyro[1] * (250.0 / 32768.0) * (M_PI / 180.0); //  250deg/s  16bit   -> [rad/s]
    263c:	7c 01       	movw	r14, r24
    263e:	69 85       	ldd	r22, Y+9	; 0x09
    2640:	7a 85       	ldd	r23, Y+10	; 0x0a
    2642:	07 2e       	mov	r0, r23
    2644:	00 0c       	add	r0, r0
    2646:	88 0b       	sbc	r24, r24
    2648:	99 0b       	sbc	r25, r25
    264a:	c7 d3       	rcall	.+1934   	; 0x2dda <__floatsisf>
    264c:	20 e0       	ldi	r18, 0x00	; 0
    264e:	30 e0       	ldi	r19, 0x00	; 0
    2650:	4a ef       	ldi	r20, 0xFA	; 250
    2652:	5b e3       	ldi	r21, 0x3B	; 59
    2654:	52 d4       	rcall	.+2212   	; 0x2efa <__mulsf3>
    2656:	25 e3       	ldi	r18, 0x35	; 53
    2658:	3a ef       	ldi	r19, 0xFA	; 250
    265a:	4e e8       	ldi	r20, 0x8E	; 142
    265c:	5c e3       	ldi	r21, 0x3C	; 60
    265e:	4d d4       	rcall	.+2202   	; 0x2efa <__mulsf3>
    2660:	4b 01       	movw	r8, r22
    2662:	5c 01       	movw	r10, r24
			gy = gyro[0] * (250.0 / 32768.0) * (M_PI / 180.0);
    2664:	6f 81       	ldd	r22, Y+7	; 0x07
    2666:	78 85       	ldd	r23, Y+8	; 0x08
    2668:	07 2e       	mov	r0, r23
    266a:	00 0c       	add	r0, r0
    266c:	88 0b       	sbc	r24, r24
    266e:	99 0b       	sbc	r25, r25
    2670:	b4 d3       	rcall	.+1896   	; 0x2dda <__floatsisf>
    2672:	20 e0       	ldi	r18, 0x00	; 0
    2674:	30 e0       	ldi	r19, 0x00	; 0
    2676:	4a ef       	ldi	r20, 0xFA	; 250
    2678:	5b e3       	ldi	r21, 0x3B	; 59
    267a:	3f d4       	rcall	.+2174   	; 0x2efa <__mulsf3>
    267c:	25 e3       	ldi	r18, 0x35	; 53
    267e:	3a ef       	ldi	r19, 0xFA	; 250
    2680:	4e e8       	ldi	r20, 0x8E	; 142
    2682:	5c e3       	ldi	r21, 0x3C	; 60
    2684:	3a d4       	rcall	.+2164   	; 0x2efa <__mulsf3>
    2686:	56 2e       	mov	r5, r22
    2688:	47 2e       	mov	r4, r23
    268a:	38 2e       	mov	r3, r24
    268c:	29 2e       	mov	r2, r25
    268e:	6b 85       	ldd	r22, Y+11	; 0x0b
    2690:	7c 85       	ldd	r23, Y+12	; 0x0c
			gz = - gyro[2] * (250.0 / 32768.0) * (M_PI / 180.0);
    2692:	71 95       	neg	r23
    2694:	61 95       	neg	r22
    2696:	71 09       	sbc	r23, r1
    2698:	07 2e       	mov	r0, r23
    269a:	00 0c       	add	r0, r0
    269c:	88 0b       	sbc	r24, r24
    269e:	99 0b       	sbc	r25, r25
    26a0:	9c d3       	rcall	.+1848   	; 0x2dda <__floatsisf>
    26a2:	20 e0       	ldi	r18, 0x00	; 0
    26a4:	30 e0       	ldi	r19, 0x00	; 0
    26a6:	4a ef       	ldi	r20, 0xFA	; 250
    26a8:	5b e3       	ldi	r21, 0x3B	; 59
    26aa:	27 d4       	rcall	.+2126   	; 0x2efa <__mulsf3>
    26ac:	25 e3       	ldi	r18, 0x35	; 53
    26ae:	3a ef       	ldi	r19, 0xFA	; 250
    26b0:	4e e8       	ldi	r20, 0x8E	; 142
    26b2:	5c e3       	ldi	r21, 0x3C	; 60
    26b4:	22 d4       	rcall	.+2116   	; 0x2efa <__mulsf3>
    26b6:	6b a7       	std	Y+43, r22	; 0x2b
    26b8:	7c a7       	std	Y+44, r23	; 0x2c
    26ba:	8d a7       	std	Y+45, r24	; 0x2d
    26bc:	9e a7       	std	Y+46, r25	; 0x2e
    26be:	8d 85       	ldd	r24, Y+13	; 0x0d
    26c0:	9e 85       	ldd	r25, Y+14	; 0x0e
    26c2:	00 e3       	ldi	r16, 0x30	; 48
			mx = mag[0] * 4912 / 32760.0; //  4912uT  16bit   -> [uT]
    26c4:	13 e1       	ldi	r17, 0x13	; 19
    26c6:	80 9f       	mul	r24, r16
    26c8:	b0 01       	movw	r22, r0
    26ca:	81 9f       	mul	r24, r17
    26cc:	70 0d       	add	r23, r0
    26ce:	90 9f       	mul	r25, r16
    26d0:	70 0d       	add	r23, r0
    26d2:	11 24       	eor	r1, r1
    26d4:	07 2e       	mov	r0, r23
    26d6:	00 0c       	add	r0, r0
    26d8:	88 0b       	sbc	r24, r24
    26da:	99 0b       	sbc	r25, r25
    26dc:	7e d3       	rcall	.+1788   	; 0x2dda <__floatsisf>
    26de:	20 e0       	ldi	r18, 0x00	; 0
    26e0:	30 ef       	ldi	r19, 0xF0	; 240
    26e2:	4f ef       	ldi	r20, 0xFF	; 255
    26e4:	56 e4       	ldi	r21, 0x46	; 70
    26e6:	de d2       	rcall	.+1468   	; 0x2ca4 <__divsf3>
    26e8:	6f a7       	std	Y+47, r22	; 0x2f
    26ea:	78 ab       	std	Y+48, r23	; 0x30
    26ec:	89 ab       	std	Y+49, r24	; 0x31
    26ee:	9a ab       	std	Y+50, r25	; 0x32
    26f0:	8f 85       	ldd	r24, Y+15	; 0x0f
    26f2:	98 89       	ldd	r25, Y+16	; 0x10
    26f4:	80 9f       	mul	r24, r16
			my = mag[1] * 4912 / 32760.0; // x, y  z -   -> mpu9250  ak8963    mpu9250  
    26f6:	b0 01       	movw	r22, r0
    26f8:	81 9f       	mul	r24, r17
    26fa:	70 0d       	add	r23, r0
    26fc:	90 9f       	mul	r25, r16
    26fe:	70 0d       	add	r23, r0
    2700:	11 24       	eor	r1, r1
    2702:	07 2e       	mov	r0, r23
    2704:	00 0c       	add	r0, r0
    2706:	88 0b       	sbc	r24, r24
    2708:	99 0b       	sbc	r25, r25
    270a:	67 d3       	rcall	.+1742   	; 0x2dda <__floatsisf>
    270c:	20 e0       	ldi	r18, 0x00	; 0
    270e:	30 ef       	ldi	r19, 0xF0	; 240
    2710:	4f ef       	ldi	r20, 0xFF	; 255
    2712:	56 e4       	ldi	r21, 0x46	; 70
    2714:	c7 d2       	rcall	.+1422   	; 0x2ca4 <__divsf3>
    2716:	6b ab       	std	Y+51, r22	; 0x33
    2718:	7c ab       	std	Y+52, r23	; 0x34
    271a:	8d ab       	std	Y+53, r24	; 0x35
    271c:	9e ab       	std	Y+54, r25	; 0x36
    271e:	89 89       	ldd	r24, Y+17	; 0x11
    2720:	9a 89       	ldd	r25, Y+18	; 0x12
    2722:	80 9f       	mul	r24, r16
    2724:	b0 01       	movw	r22, r0
    2726:	81 9f       	mul	r24, r17
			mz = mag[2] * 4912 / 32760.0;			
    2728:	70 0d       	add	r23, r0
    272a:	90 9f       	mul	r25, r16
    272c:	70 0d       	add	r23, r0
    272e:	11 24       	eor	r1, r1
    2730:	07 2e       	mov	r0, r23
    2732:	00 0c       	add	r0, r0
    2734:	88 0b       	sbc	r24, r24
    2736:	99 0b       	sbc	r25, r25
    2738:	50 d3       	rcall	.+1696   	; 0x2dda <__floatsisf>
    273a:	20 e0       	ldi	r18, 0x00	; 0
    273c:	30 ef       	ldi	r19, 0xF0	; 240
    273e:	4f ef       	ldi	r20, 0xFF	; 255
    2740:	56 e4       	ldi	r21, 0x46	; 70
    2742:	b0 d2       	rcall	.+1376   	; 0x2ca4 <__divsf3>
    2744:	9f 93       	push	r25
    2746:	8f 93       	push	r24
    2748:	7f 93       	push	r23
    274a:	6f 93       	push	r22
    274c:	3e a9       	ldd	r19, Y+54	; 0x36
    274e:	3f 93       	push	r19
    2750:	8d a9       	ldd	r24, Y+53	; 0x35
			MadgwickQuaternionUpdate(q, ax, ay, az, gx, gy, gz, mx, my, mz);
    2752:	8f 93       	push	r24
    2754:	9c a9       	ldd	r25, Y+52	; 0x34
    2756:	9f 93       	push	r25
    2758:	2b a9       	ldd	r18, Y+51	; 0x33
    275a:	2f 93       	push	r18
    275c:	3a a9       	ldd	r19, Y+50	; 0x32
    275e:	3f 93       	push	r19
    2760:	89 a9       	ldd	r24, Y+49	; 0x31
    2762:	8f 93       	push	r24
    2764:	98 a9       	ldd	r25, Y+48	; 0x30
    2766:	9f 93       	push	r25
    2768:	2f a5       	ldd	r18, Y+47	; 0x2f
    276a:	2f 93       	push	r18
    276c:	3e a5       	ldd	r19, Y+46	; 0x2e
    276e:	3f 93       	push	r19
    2770:	8d a5       	ldd	r24, Y+45	; 0x2d
    2772:	8f 93       	push	r24
    2774:	9c a5       	ldd	r25, Y+44	; 0x2c
    2776:	9f 93       	push	r25
    2778:	2b a5       	ldd	r18, Y+43	; 0x2b
    277a:	2f 93       	push	r18
    277c:	2f 92       	push	r2
    277e:	3f 92       	push	r3
    2780:	4f 92       	push	r4
    2782:	5f 92       	push	r5
    2784:	0f a1       	ldd	r16, Y+39	; 0x27
    2786:	18 a5       	ldd	r17, Y+40	; 0x28
    2788:	29 a5       	ldd	r18, Y+41	; 0x29
    278a:	3a a5       	ldd	r19, Y+42	; 0x2a
    278c:	4b a1       	ldd	r20, Y+35	; 0x23
    278e:	5c a1       	ldd	r21, Y+36	; 0x24
    2790:	6d a1       	ldd	r22, Y+37	; 0x25
    2792:	7e a1       	ldd	r23, Y+38	; 0x26
    2794:	ce 01       	movw	r24, r28
    2796:	43 96       	adiw	r24, 0x13	; 19
    2798:	0e 94 d7 06 	call	0xdae	; 0xdae <MadgwickQuaternionUpdate>
			
			if (index++ == 20){
    279c:	c3 01       	movw	r24, r6
    279e:	01 96       	adiw	r24, 0x01	; 1
    27a0:	0f b6       	in	r0, 0x3f	; 63
    27a2:	f8 94       	cli
    27a4:	de bf       	out	0x3e, r29	; 62
    27a6:	0f be       	out	0x3f, r0	; 63
    27a8:	cd bf       	out	0x3d, r28	; 61
    27aa:	34 e1       	ldi	r19, 0x14	; 20
    27ac:	63 16       	cp	r6, r19
    27ae:	71 04       	cpc	r7, r1
				UART1_transmit_int16((int16_t)10000*q[0]); UART1_transmit_string(",");
    27b0:	09 f0       	breq	.+2      	; 0x27b4 <main+0x3ce>
    27b2:	3d c0       	rjmp	.+122    	; 0x282e <main+0x448>
    27b4:	6b 89       	ldd	r22, Y+19	; 0x13
    27b6:	7c 89       	ldd	r23, Y+20	; 0x14
    27b8:	8d 89       	ldd	r24, Y+21	; 0x15
    27ba:	9e 89       	ldd	r25, Y+22	; 0x16
    27bc:	20 e0       	ldi	r18, 0x00	; 0
    27be:	30 e4       	ldi	r19, 0x40	; 64
    27c0:	4c e1       	ldi	r20, 0x1C	; 28
    27c2:	56 e4       	ldi	r21, 0x46	; 70
    27c4:	9a d3       	rcall	.+1844   	; 0x2efa <__mulsf3>
    27c6:	d6 d2       	rcall	.+1452   	; 0x2d74 <__fixsfsi>
    27c8:	cb 01       	movw	r24, r22
    27ca:	c3 d1       	rcall	.+902    	; 0x2b52 <UART1_transmit_int16>
    27cc:	80 e0       	ldi	r24, 0x00	; 0
    27ce:	91 e0       	ldi	r25, 0x01	; 1
				UART1_transmit_int16((int16_t)10000*q[1]); UART1_transmit_string(",");
    27d0:	a3 d1       	rcall	.+838    	; 0x2b18 <UART1_transmit_string>
    27d2:	6f 89       	ldd	r22, Y+23	; 0x17
    27d4:	78 8d       	ldd	r23, Y+24	; 0x18
    27d6:	89 8d       	ldd	r24, Y+25	; 0x19
    27d8:	9a 8d       	ldd	r25, Y+26	; 0x1a
    27da:	20 e0       	ldi	r18, 0x00	; 0
    27dc:	30 e4       	ldi	r19, 0x40	; 64
    27de:	4c e1       	ldi	r20, 0x1C	; 28
    27e0:	56 e4       	ldi	r21, 0x46	; 70
    27e2:	8b d3       	rcall	.+1814   	; 0x2efa <__mulsf3>
    27e4:	c7 d2       	rcall	.+1422   	; 0x2d74 <__fixsfsi>
    27e6:	cb 01       	movw	r24, r22
    27e8:	b4 d1       	rcall	.+872    	; 0x2b52 <UART1_transmit_int16>
    27ea:	80 e0       	ldi	r24, 0x00	; 0
    27ec:	91 e0       	ldi	r25, 0x01	; 1
    27ee:	94 d1       	rcall	.+808    	; 0x2b18 <UART1_transmit_string>
    27f0:	6b 8d       	ldd	r22, Y+27	; 0x1b
    27f2:	7c 8d       	ldd	r23, Y+28	; 0x1c
    27f4:	8d 8d       	ldd	r24, Y+29	; 0x1d
				UART1_transmit_int16((int16_t)10000*q[2]); UART1_transmit_string(",");
    27f6:	9e 8d       	ldd	r25, Y+30	; 0x1e
    27f8:	20 e0       	ldi	r18, 0x00	; 0
    27fa:	30 e4       	ldi	r19, 0x40	; 64
    27fc:	4c e1       	ldi	r20, 0x1C	; 28
    27fe:	56 e4       	ldi	r21, 0x46	; 70
    2800:	7c d3       	rcall	.+1784   	; 0x2efa <__mulsf3>
    2802:	b8 d2       	rcall	.+1392   	; 0x2d74 <__fixsfsi>
    2804:	cb 01       	movw	r24, r22
    2806:	a5 d1       	rcall	.+842    	; 0x2b52 <UART1_transmit_int16>
    2808:	80 e0       	ldi	r24, 0x00	; 0
    280a:	91 e0       	ldi	r25, 0x01	; 1
    280c:	85 d1       	rcall	.+778    	; 0x2b18 <UART1_transmit_string>
    280e:	6f 8d       	ldd	r22, Y+31	; 0x1f
    2810:	78 a1       	ldd	r23, Y+32	; 0x20
    2812:	89 a1       	ldd	r24, Y+33	; 0x21
    2814:	9a a1       	ldd	r25, Y+34	; 0x22
    2816:	20 e0       	ldi	r18, 0x00	; 0
    2818:	30 e4       	ldi	r19, 0x40	; 64
    281a:	4c e1       	ldi	r20, 0x1C	; 28
				UART1_transmit_int16((int16_t)10000*q[3]); UART1_transmit('\n');
    281c:	56 e4       	ldi	r21, 0x46	; 70
    281e:	6d d3       	rcall	.+1754   	; 0x2efa <__mulsf3>
    2820:	a9 d2       	rcall	.+1362   	; 0x2d74 <__fixsfsi>
    2822:	cb 01       	movw	r24, r22
    2824:	96 d1       	rcall	.+812    	; 0x2b52 <UART1_transmit_int16>
    2826:	8a e0       	ldi	r24, 0x0A	; 10
    2828:	69 d1       	rcall	.+722    	; 0x2afc <UART1_transmit>
    282a:	80 e0       	ldi	r24, 0x00	; 0
    282c:	90 e0       	ldi	r25, 0x00	; 0
    282e:	10 92 02 01 	sts	0x0102, r1	; 0x800102 <__data_end>
    2832:	3c 01       	movw	r6, r24
    2834:	ae ce       	rjmp	.-676    	; 0x2592 <main+0x1ac>

00002836 <MPU9250_Write>:
    2836:	cf 93       	push	r28
    2838:	df 93       	push	r29
    283a:	d8 2f       	mov	r29, r24
    283c:	c6 2f       	mov	r28, r22
    283e:	ad d1       	rcall	.+858    	; 0x2b9a <I2C_Start>
				index = 0;
    2840:	80 ed       	ldi	r24, 0xD0	; 208
    2842:	b7 d1       	rcall	.+878    	; 0x2bb2 <I2C_Write>
			}
			
			flag = 0;  //   
    2844:	8d 2f       	mov	r24, r29
    2846:	b5 d1       	rcall	.+874    	; 0x2bb2 <I2C_Write>
    2848:	8c 2f       	mov	r24, r28
    284a:	b3 d1       	rcall	.+870    	; 0x2bb2 <I2C_Write>

	// Calculate the average bias
	gyroBias[0] = gyroSum[0] / GYRO_CALIBRATION_SAMPLES;
	gyroBias[1] = gyroSum[1] / GYRO_CALIBRATION_SAMPLES;
	gyroBias[2] = gyroSum[2] / GYRO_CALIBRATION_SAMPLES;
}
    284c:	ae d1       	rcall	.+860    	; 0x2baa <I2C_Stop>
    284e:	df 91       	pop	r29
    2850:	cf 91       	pop	r28
    2852:	08 95       	ret

00002854 <MPU9250_Read>:
    2854:	cf 93       	push	r28
    2856:	c8 2f       	mov	r28, r24
    2858:	a0 d1       	rcall	.+832    	; 0x2b9a <I2C_Start>
    285a:	80 ed       	ldi	r24, 0xD0	; 208
    285c:	aa d1       	rcall	.+852    	; 0x2bb2 <I2C_Write>
    285e:	8c 2f       	mov	r24, r28
    2860:	a8 d1       	rcall	.+848    	; 0x2bb2 <I2C_Write>
    2862:	9b d1       	rcall	.+822    	; 0x2b9a <I2C_Start>
    2864:	81 ed       	ldi	r24, 0xD1	; 209
    2866:	a5 d1       	rcall	.+842    	; 0x2bb2 <I2C_Write>
    2868:	ae d1       	rcall	.+860    	; 0x2bc6 <I2C_ReadNack>
    286a:	c8 2f       	mov	r28, r24
    286c:	9e d1       	rcall	.+828    	; 0x2baa <I2C_Stop>
    286e:	8c 2f       	mov	r24, r28
    2870:	cf 91       	pop	r28
    2872:	08 95       	ret

00002874 <MPU9250_Init>:
    2874:	60 e0       	ldi	r22, 0x00	; 0
    2876:	8b e6       	ldi	r24, 0x6B	; 107
    2878:	de df       	rcall	.-68     	; 0x2836 <MPU9250_Write>
    287a:	2f ef       	ldi	r18, 0xFF	; 255
    287c:	81 ee       	ldi	r24, 0xE1	; 225
    287e:	94 e0       	ldi	r25, 0x04	; 4
    2880:	21 50       	subi	r18, 0x01	; 1
    2882:	80 40       	sbci	r24, 0x00	; 0
    2884:	90 40       	sbci	r25, 0x00	; 0
    2886:	e1 f7       	brne	.-8      	; 0x2880 <MPU9250_Init+0xc>
    2888:	00 c0       	rjmp	.+0      	; 0x288a <MPU9250_Init+0x16>
    288a:	00 00       	nop
    288c:	60 e0       	ldi	r22, 0x00	; 0
    288e:	8c e1       	ldi	r24, 0x1C	; 28
    2890:	d2 df       	rcall	.-92     	; 0x2836 <MPU9250_Write>
    2892:	60 e0       	ldi	r22, 0x00	; 0
    2894:	8b e1       	ldi	r24, 0x1B	; 27
    2896:	cf df       	rcall	.-98     	; 0x2836 <MPU9250_Write>
    2898:	62 e0       	ldi	r22, 0x02	; 2
    289a:	87 e3       	ldi	r24, 0x37	; 55
    289c:	cc cf       	rjmp	.-104    	; 0x2836 <MPU9250_Write>
    289e:	08 95       	ret

000028a0 <Read_Accel_Gyro>:
    28a0:	cf 92       	push	r12
    28a2:	df 92       	push	r13
    28a4:	ef 92       	push	r14
    28a6:	ff 92       	push	r15
    28a8:	0f 93       	push	r16
    28aa:	1f 93       	push	r17
    28ac:	cf 93       	push	r28
    28ae:	df 93       	push	r29
    28b0:	cd b7       	in	r28, 0x3d	; 61
    28b2:	de b7       	in	r29, 0x3e	; 62
    28b4:	2e 97       	sbiw	r28, 0x0e	; 14
    28b6:	0f b6       	in	r0, 0x3f	; 63
    28b8:	f8 94       	cli
    28ba:	de bf       	out	0x3e, r29	; 62
    28bc:	0f be       	out	0x3f, r0	; 63
    28be:	cd bf       	out	0x3d, r28	; 61
    28c0:	6c 01       	movw	r12, r24
    28c2:	7b 01       	movw	r14, r22
    28c4:	00 e0       	ldi	r16, 0x00	; 0
    28c6:	10 e0       	ldi	r17, 0x00	; 0
    28c8:	0c c0       	rjmp	.+24     	; 0x28e2 <Read_Accel_Gyro+0x42>
    28ca:	8b e3       	ldi	r24, 0x3B	; 59
    28cc:	80 0f       	add	r24, r16
    28ce:	c2 df       	rcall	.-124    	; 0x2854 <MPU9250_Read>
    28d0:	e1 e0       	ldi	r30, 0x01	; 1
    28d2:	f0 e0       	ldi	r31, 0x00	; 0
    28d4:	ec 0f       	add	r30, r28
    28d6:	fd 1f       	adc	r31, r29
    28d8:	e0 0f       	add	r30, r16
    28da:	f1 1f       	adc	r31, r17
    28dc:	80 83       	st	Z, r24
    28de:	0f 5f       	subi	r16, 0xFF	; 255
    28e0:	1f 4f       	sbci	r17, 0xFF	; 255
    28e2:	0e 30       	cpi	r16, 0x0E	; 14
    28e4:	11 05       	cpc	r17, r1
    28e6:	8c f3       	brlt	.-30     	; 0x28ca <Read_Accel_Gyro+0x2a>
    28e8:	89 81       	ldd	r24, Y+1	; 0x01
    28ea:	90 e0       	ldi	r25, 0x00	; 0
    28ec:	98 2f       	mov	r25, r24
    28ee:	88 27       	eor	r24, r24
    28f0:	2a 81       	ldd	r18, Y+2	; 0x02
    28f2:	82 2b       	or	r24, r18
    28f4:	f6 01       	movw	r30, r12
    28f6:	91 83       	std	Z+1, r25	; 0x01
    28f8:	80 83       	st	Z, r24
    28fa:	8b 81       	ldd	r24, Y+3	; 0x03
    28fc:	90 e0       	ldi	r25, 0x00	; 0
    28fe:	98 2f       	mov	r25, r24
    2900:	88 27       	eor	r24, r24
    2902:	2c 81       	ldd	r18, Y+4	; 0x04
    2904:	82 2b       	or	r24, r18
    2906:	93 83       	std	Z+3, r25	; 0x03
    2908:	82 83       	std	Z+2, r24	; 0x02
    290a:	8d 81       	ldd	r24, Y+5	; 0x05
    290c:	90 e0       	ldi	r25, 0x00	; 0
    290e:	98 2f       	mov	r25, r24
    2910:	88 27       	eor	r24, r24
    2912:	2e 81       	ldd	r18, Y+6	; 0x06
    2914:	82 2b       	or	r24, r18
    2916:	95 83       	std	Z+5, r25	; 0x05
    2918:	84 83       	std	Z+4, r24	; 0x04
    291a:	89 85       	ldd	r24, Y+9	; 0x09
    291c:	90 e0       	ldi	r25, 0x00	; 0
    291e:	98 2f       	mov	r25, r24
    2920:	88 27       	eor	r24, r24
    2922:	2a 85       	ldd	r18, Y+10	; 0x0a
    2924:	ac 01       	movw	r20, r24
    2926:	42 2b       	or	r20, r18
    2928:	2b 85       	ldd	r18, Y+11	; 0x0b
    292a:	30 e0       	ldi	r19, 0x00	; 0
    292c:	32 2f       	mov	r19, r18
    292e:	22 27       	eor	r18, r18
    2930:	8c 85       	ldd	r24, Y+12	; 0x0c
    2932:	28 2b       	or	r18, r24
    2934:	8d 85       	ldd	r24, Y+13	; 0x0d
    2936:	90 e0       	ldi	r25, 0x00	; 0
    2938:	98 2f       	mov	r25, r24
    293a:	88 27       	eor	r24, r24
    293c:	6e 85       	ldd	r22, Y+14	; 0x0e
    293e:	86 2b       	or	r24, r22
    2940:	44 50       	subi	r20, 0x04	; 4
    2942:	51 09       	sbc	r21, r1
    2944:	f7 01       	movw	r30, r14
    2946:	51 83       	std	Z+1, r21	; 0x01
    2948:	40 83       	st	Z, r20
    294a:	20 54       	subi	r18, 0x40	; 64
    294c:	31 09       	sbc	r19, r1
    294e:	33 83       	std	Z+3, r19	; 0x03
    2950:	22 83       	std	Z+2, r18	; 0x02
    2952:	83 97       	sbiw	r24, 0x23	; 35
    2954:	95 83       	std	Z+5, r25	; 0x05
    2956:	84 83       	std	Z+4, r24	; 0x04
    2958:	2e 96       	adiw	r28, 0x0e	; 14
    295a:	0f b6       	in	r0, 0x3f	; 63
    295c:	f8 94       	cli
    295e:	de bf       	out	0x3e, r29	; 62
    2960:	0f be       	out	0x3f, r0	; 63
    2962:	cd bf       	out	0x3d, r28	; 61
    2964:	df 91       	pop	r29
    2966:	cf 91       	pop	r28
    2968:	1f 91       	pop	r17
    296a:	0f 91       	pop	r16
    296c:	ff 90       	pop	r15
    296e:	ef 90       	pop	r14
    2970:	df 90       	pop	r13
    2972:	cf 90       	pop	r12
    2974:	08 95       	ret

00002976 <AK8963_Write>:

// AK8963 Functions
void AK8963_Write(uint8_t reg, uint8_t data) {
    2976:	cf 93       	push	r28
    2978:	df 93       	push	r29
    297a:	d8 2f       	mov	r29, r24
    297c:	c6 2f       	mov	r28, r22
	I2C_Start();
    297e:	0d d1       	rcall	.+538    	; 0x2b9a <I2C_Start>
	I2C_Write(AK8963_ADDRESS << 1);
    2980:	88 e1       	ldi	r24, 0x18	; 24
    2982:	17 d1       	rcall	.+558    	; 0x2bb2 <I2C_Write>
	I2C_Write(reg);
    2984:	8d 2f       	mov	r24, r29
    2986:	15 d1       	rcall	.+554    	; 0x2bb2 <I2C_Write>
	I2C_Write(data);
    2988:	8c 2f       	mov	r24, r28
    298a:	13 d1       	rcall	.+550    	; 0x2bb2 <I2C_Write>
    298c:	0e d1       	rcall	.+540    	; 0x2baa <I2C_Stop>
	I2C_Stop();
    298e:	df 91       	pop	r29
    2990:	cf 91       	pop	r28
}
    2992:	08 95       	ret

00002994 <AK8963_Read>:
    2994:	cf 93       	push	r28
    2996:	c8 2f       	mov	r28, r24

uint8_t AK8963_Read(uint8_t reg) {
	uint8_t data;
	I2C_Start();
    2998:	00 d1       	rcall	.+512    	; 0x2b9a <I2C_Start>
	I2C_Write((AK8963_ADDRESS << 1) | 0x00); // Write address
    299a:	88 e1       	ldi	r24, 0x18	; 24
    299c:	0a d1       	rcall	.+532    	; 0x2bb2 <I2C_Write>
	I2C_Write(reg);
    299e:	8c 2f       	mov	r24, r28
    29a0:	08 d1       	rcall	.+528    	; 0x2bb2 <I2C_Write>
	I2C_Start();
    29a2:	fb d0       	rcall	.+502    	; 0x2b9a <I2C_Start>
	I2C_Write((AK8963_ADDRESS << 1) | 0x01); // Read address
    29a4:	89 e1       	ldi	r24, 0x19	; 25
    29a6:	05 d1       	rcall	.+522    	; 0x2bb2 <I2C_Write>
	data = I2C_ReadNack();
    29a8:	0e d1       	rcall	.+540    	; 0x2bc6 <I2C_ReadNack>
    29aa:	c8 2f       	mov	r28, r24
    29ac:	fe d0       	rcall	.+508    	; 0x2baa <I2C_Stop>
	I2C_Stop();
    29ae:	8c 2f       	mov	r24, r28
    29b0:	cf 91       	pop	r28
	return data;
}
    29b2:	08 95       	ret

000029b4 <AK8963_Init>:
    29b4:	60 e0       	ldi	r22, 0x00	; 0
    29b6:	8a e0       	ldi	r24, 0x0A	; 10

void AK8963_Init() {
	// Power down AK8963
	AK8963_Write(0x0A, 0x00);
    29b8:	de df       	rcall	.-68     	; 0x2976 <AK8963_Write>
	#else
		//round up by default
		__ticks_dc = (uint32_t)(ceil(fabs(__tmp)));
	#endif

	__builtin_avr_delay_cycles(__ticks_dc);
    29ba:	8f e3       	ldi	r24, 0x3F	; 63
    29bc:	9c e9       	ldi	r25, 0x9C	; 156
    29be:	01 97       	sbiw	r24, 0x01	; 1
    29c0:	f1 f7       	brne	.-4      	; 0x29be <AK8963_Init+0xa>
    29c2:	00 c0       	rjmp	.+0      	; 0x29c4 <AK8963_Init+0x10>
    29c4:	00 00       	nop
	_delay_ms(10);
	// Enter Fuse ROM access mode
	AK8963_Write(0x0A, 0x0F);
    29c6:	6f e0       	ldi	r22, 0x0F	; 15
    29c8:	8a e0       	ldi	r24, 0x0A	; 10
    29ca:	d5 df       	rcall	.-86     	; 0x2976 <AK8963_Write>
    29cc:	8f e3       	ldi	r24, 0x3F	; 63
    29ce:	9c e9       	ldi	r25, 0x9C	; 156
    29d0:	01 97       	sbiw	r24, 0x01	; 1
    29d2:	f1 f7       	brne	.-4      	; 0x29d0 <AK8963_Init+0x1c>
    29d4:	00 c0       	rjmp	.+0      	; 0x29d6 <AK8963_Init+0x22>
    29d6:	00 00       	nop
	_delay_ms(10);
	// Power down AK8963
	AK8963_Write(0x0A, 0x00);
    29d8:	60 e0       	ldi	r22, 0x00	; 0
    29da:	8a e0       	ldi	r24, 0x0A	; 10
    29dc:	cc df       	rcall	.-104    	; 0x2976 <AK8963_Write>
    29de:	8f e3       	ldi	r24, 0x3F	; 63
    29e0:	9c e9       	ldi	r25, 0x9C	; 156
    29e2:	01 97       	sbiw	r24, 0x01	; 1
    29e4:	f1 f7       	brne	.-4      	; 0x29e2 <AK8963_Init+0x2e>
    29e6:	00 c0       	rjmp	.+0      	; 0x29e8 <AK8963_Init+0x34>
    29e8:	00 00       	nop
    29ea:	08 95       	ret

000029ec <Read_Magnetometer>:
	_delay_ms(10);
}

void Read_Magnetometer(int16_t* mag) {
    29ec:	ef 92       	push	r14
    29ee:	ff 92       	push	r15
    29f0:	0f 93       	push	r16
    29f2:	1f 93       	push	r17
    29f4:	cf 93       	push	r28
    29f6:	df 93       	push	r29
    29f8:	00 d0       	rcall	.+0      	; 0x29fa <Read_Magnetometer+0xe>
    29fa:	00 d0       	rcall	.+0      	; 0x29fc <Read_Magnetometer+0x10>
    29fc:	00 d0       	rcall	.+0      	; 0x29fe <Read_Magnetometer+0x12>
    29fe:	cd b7       	in	r28, 0x3d	; 61
    2a00:	de b7       	in	r29, 0x3e	; 62
    2a02:	7c 01       	movw	r14, r24
	uint8_t rawData[6];

	// Set to single measurement mode, 16bit
	AK8963_Write(0x0A, 0x11);
    2a04:	61 e1       	ldi	r22, 0x11	; 17
    2a06:	8a e0       	ldi	r24, 0x0A	; 10
    2a08:	b6 df       	rcall	.-148    	; 0x2976 <AK8963_Write>
    2a0a:	8f e3       	ldi	r24, 0x3F	; 63
    2a0c:	9c e9       	ldi	r25, 0x9C	; 156
    2a0e:	01 97       	sbiw	r24, 0x01	; 1
    2a10:	f1 f7       	brne	.-4      	; 0x2a0e <Read_Magnetometer+0x22>
    2a12:	00 c0       	rjmp	.+0      	; 0x2a14 <Read_Magnetometer+0x28>
    2a14:	00 00       	nop
	_delay_ms(10);

	for (int i = 0; i < 6; i++) {
    2a16:	00 e0       	ldi	r16, 0x00	; 0
    2a18:	10 e0       	ldi	r17, 0x00	; 0
    2a1a:	0c c0       	rjmp	.+24     	; 0x2a34 <Read_Magnetometer+0x48>
		rawData[i] = AK8963_Read(0x03 + i);
    2a1c:	83 e0       	ldi	r24, 0x03	; 3
    2a1e:	80 0f       	add	r24, r16
    2a20:	b9 df       	rcall	.-142    	; 0x2994 <AK8963_Read>
    2a22:	e1 e0       	ldi	r30, 0x01	; 1
    2a24:	f0 e0       	ldi	r31, 0x00	; 0
    2a26:	ec 0f       	add	r30, r28
    2a28:	fd 1f       	adc	r31, r29
    2a2a:	e0 0f       	add	r30, r16
    2a2c:	f1 1f       	adc	r31, r17
    2a2e:	80 83       	st	Z, r24

	// Set to single measurement mode, 16bit
	AK8963_Write(0x0A, 0x11);
	_delay_ms(10);

	for (int i = 0; i < 6; i++) {
    2a30:	0f 5f       	subi	r16, 0xFF	; 255
    2a32:	1f 4f       	sbci	r17, 0xFF	; 255
    2a34:	06 30       	cpi	r16, 0x06	; 6
    2a36:	11 05       	cpc	r17, r1
    2a38:	8c f3       	brlt	.-30     	; 0x2a1c <Read_Magnetometer+0x30>
		rawData[i] = AK8963_Read(0x03 + i);
	}
	// Magnetometer data
	mag[0] = ((int16_t)rawData[1] << 8) | rawData[0];
    2a3a:	8a 81       	ldd	r24, Y+2	; 0x02
    2a3c:	90 e0       	ldi	r25, 0x00	; 0
    2a3e:	98 2f       	mov	r25, r24
    2a40:	88 27       	eor	r24, r24
    2a42:	29 81       	ldd	r18, Y+1	; 0x01
    2a44:	82 2b       	or	r24, r18
    2a46:	f7 01       	movw	r30, r14
    2a48:	91 83       	std	Z+1, r25	; 0x01
    2a4a:	80 83       	st	Z, r24
	mag[1] = ((int16_t)rawData[3] << 8) | rawData[2];
    2a4c:	8c 81       	ldd	r24, Y+4	; 0x04
    2a4e:	90 e0       	ldi	r25, 0x00	; 0
    2a50:	98 2f       	mov	r25, r24
    2a52:	88 27       	eor	r24, r24
    2a54:	2b 81       	ldd	r18, Y+3	; 0x03
    2a56:	82 2b       	or	r24, r18
    2a58:	93 83       	std	Z+3, r25	; 0x03
    2a5a:	82 83       	std	Z+2, r24	; 0x02
	mag[2] = ((int16_t)rawData[5] << 8) | rawData[4];
    2a5c:	8e 81       	ldd	r24, Y+6	; 0x06
    2a5e:	90 e0       	ldi	r25, 0x00	; 0
    2a60:	98 2f       	mov	r25, r24
    2a62:	88 27       	eor	r24, r24
    2a64:	2d 81       	ldd	r18, Y+5	; 0x05
    2a66:	82 2b       	or	r24, r18
    2a68:	95 83       	std	Z+5, r25	; 0x05
    2a6a:	84 83       	std	Z+4, r24	; 0x04
}
    2a6c:	26 96       	adiw	r28, 0x06	; 6
    2a6e:	0f b6       	in	r0, 0x3f	; 63
    2a70:	f8 94       	cli
    2a72:	de bf       	out	0x3e, r29	; 62
    2a74:	0f be       	out	0x3f, r0	; 63
    2a76:	cd bf       	out	0x3d, r28	; 61
    2a78:	df 91       	pop	r29
    2a7a:	cf 91       	pop	r28
    2a7c:	1f 91       	pop	r17
    2a7e:	0f 91       	pop	r16
    2a80:	ff 90       	pop	r15
    2a82:	ef 90       	pop	r14
    2a84:	08 95       	ret

00002a86 <UART0_receive>:

uint8_t I2C_ReadAck() {
	TWCR = (1 << TWEN) | (1 << TWINT) | (1 << TWEA); // Start receiving data with ACK
	while (!(TWCR & (1 << TWINT))); // Wait for TWINT flag set
	return TWDR;
}
    2a86:	5f 9b       	sbis	0x0b, 7	; 11
    2a88:	fe cf       	rjmp	.-4      	; 0x2a86 <UART0_receive>
    2a8a:	8c b1       	in	r24, 0x0c	; 12
    2a8c:	08 95       	ret

00002a8e <UART0_receive_string>:
    2a8e:	1f 93       	push	r17
    2a90:	cf 93       	push	r28
    2a92:	df 93       	push	r29
    2a94:	ec 01       	movw	r28, r24
    2a96:	16 2f       	mov	r17, r22
    2a98:	f6 df       	rcall	.-20     	; 0x2a86 <UART0_receive>
    2a9a:	81 13       	cpse	r24, r17
    2a9c:	02 c0       	rjmp	.+4      	; 0x2aa2 <UART0_receive_string+0x14>
    2a9e:	18 82       	st	Y, r1
    2aa0:	03 c0       	rjmp	.+6      	; 0x2aa8 <UART0_receive_string+0x1a>
    2aa2:	88 83       	st	Y, r24
    2aa4:	21 96       	adiw	r28, 0x01	; 1
    2aa6:	f8 cf       	rjmp	.-16     	; 0x2a98 <UART0_receive_string+0xa>
    2aa8:	df 91       	pop	r29
    2aaa:	cf 91       	pop	r28
    2aac:	1f 91       	pop	r17
    2aae:	08 95       	ret

00002ab0 <UART1_init>:
    2ab0:	dc 01       	movw	r26, r24
    2ab2:	cb 01       	movw	r24, r22
    2ab4:	88 0f       	add	r24, r24
    2ab6:	99 1f       	adc	r25, r25
    2ab8:	aa 1f       	adc	r26, r26
    2aba:	bb 1f       	adc	r27, r27
    2abc:	88 0f       	add	r24, r24
    2abe:	99 1f       	adc	r25, r25
    2ac0:	aa 1f       	adc	r26, r26
    2ac2:	bb 1f       	adc	r27, r27
    2ac4:	9c 01       	movw	r18, r24
    2ac6:	ad 01       	movw	r20, r26
    2ac8:	22 0f       	add	r18, r18
    2aca:	33 1f       	adc	r19, r19
    2acc:	44 1f       	adc	r20, r20
    2ace:	55 1f       	adc	r21, r21
    2ad0:	22 0f       	add	r18, r18
    2ad2:	33 1f       	adc	r19, r19
    2ad4:	44 1f       	adc	r20, r20
    2ad6:	55 1f       	adc	r21, r21
    2ad8:	60 e0       	ldi	r22, 0x00	; 0
    2ada:	74 e2       	ldi	r23, 0x24	; 36
    2adc:	84 ef       	ldi	r24, 0xF4	; 244
    2ade:	90 e0       	ldi	r25, 0x00	; 0
    2ae0:	ea d2       	rcall	.+1492   	; 0x30b6 <__udivmodsi4>
    2ae2:	21 50       	subi	r18, 0x01	; 1
    2ae4:	31 09       	sbc	r19, r1
    2ae6:	30 93 98 00 	sts	0x0098, r19	; 0x800098 <__TEXT_REGION_LENGTH__+0x7e0098>
    2aea:	20 93 99 00 	sts	0x0099, r18	; 0x800099 <__TEXT_REGION_LENGTH__+0x7e0099>
    2aee:	88 e9       	ldi	r24, 0x98	; 152
    2af0:	80 93 9a 00 	sts	0x009A, r24	; 0x80009a <__TEXT_REGION_LENGTH__+0x7e009a>
    2af4:	86 e0       	ldi	r24, 0x06	; 6
    2af6:	80 93 9d 00 	sts	0x009D, r24	; 0x80009d <__TEXT_REGION_LENGTH__+0x7e009d>
    2afa:	08 95       	ret

00002afc <UART1_transmit>:
    2afc:	90 91 9b 00 	lds	r25, 0x009B	; 0x80009b <__TEXT_REGION_LENGTH__+0x7e009b>
    2b00:	95 ff       	sbrs	r25, 5
    2b02:	fc cf       	rjmp	.-8      	; 0x2afc <UART1_transmit>
    2b04:	80 93 9c 00 	sts	0x009C, r24	; 0x80009c <__TEXT_REGION_LENGTH__+0x7e009c>
    2b08:	08 95       	ret

00002b0a <UART1_receive>:
    2b0a:	80 91 9b 00 	lds	r24, 0x009B	; 0x80009b <__TEXT_REGION_LENGTH__+0x7e009b>
    2b0e:	88 23       	and	r24, r24
    2b10:	e4 f7       	brge	.-8      	; 0x2b0a <UART1_receive>
    2b12:	80 91 9c 00 	lds	r24, 0x009C	; 0x80009c <__TEXT_REGION_LENGTH__+0x7e009c>
    2b16:	08 95       	ret

00002b18 <UART1_transmit_string>:
    2b18:	cf 93       	push	r28
    2b1a:	df 93       	push	r29
    2b1c:	ec 01       	movw	r28, r24
    2b1e:	02 c0       	rjmp	.+4      	; 0x2b24 <UART1_transmit_string+0xc>
    2b20:	21 96       	adiw	r28, 0x01	; 1
    2b22:	ec df       	rcall	.-40     	; 0x2afc <UART1_transmit>
    2b24:	88 81       	ld	r24, Y
    2b26:	81 11       	cpse	r24, r1
    2b28:	fb cf       	rjmp	.-10     	; 0x2b20 <UART1_transmit_string+0x8>
    2b2a:	df 91       	pop	r29
    2b2c:	cf 91       	pop	r28
    2b2e:	08 95       	ret

00002b30 <UART1_receive_string>:
    2b30:	1f 93       	push	r17
    2b32:	cf 93       	push	r28
    2b34:	df 93       	push	r29
    2b36:	ec 01       	movw	r28, r24
    2b38:	16 2f       	mov	r17, r22
    2b3a:	e7 df       	rcall	.-50     	; 0x2b0a <UART1_receive>
    2b3c:	81 13       	cpse	r24, r17
    2b3e:	02 c0       	rjmp	.+4      	; 0x2b44 <UART1_receive_string+0x14>
    2b40:	18 82       	st	Y, r1
    2b42:	03 c0       	rjmp	.+6      	; 0x2b4a <UART1_receive_string+0x1a>
    2b44:	88 83       	st	Y, r24
    2b46:	21 96       	adiw	r28, 0x01	; 1
    2b48:	f8 cf       	rjmp	.-16     	; 0x2b3a <UART1_receive_string+0xa>
    2b4a:	df 91       	pop	r29
    2b4c:	cf 91       	pop	r28
    2b4e:	1f 91       	pop	r17
    2b50:	08 95       	ret

00002b52 <UART1_transmit_int16>:
    2b52:	cf 93       	push	r28
    2b54:	df 93       	push	r29
    2b56:	cd b7       	in	r28, 0x3d	; 61
    2b58:	de b7       	in	r29, 0x3e	; 62
    2b5a:	27 97       	sbiw	r28, 0x07	; 7
    2b5c:	0f b6       	in	r0, 0x3f	; 63
    2b5e:	f8 94       	cli
    2b60:	de bf       	out	0x3e, r29	; 62
    2b62:	0f be       	out	0x3f, r0	; 63
    2b64:	cd bf       	out	0x3d, r28	; 61
    2b66:	4a e0       	ldi	r20, 0x0A	; 10
    2b68:	be 01       	movw	r22, r28
    2b6a:	6f 5f       	subi	r22, 0xFF	; 255
    2b6c:	7f 4f       	sbci	r23, 0xFF	; 255
    2b6e:	c5 d2       	rcall	.+1418   	; 0x30fa <__itoa_ncheck>
    2b70:	ce 01       	movw	r24, r28
    2b72:	01 96       	adiw	r24, 0x01	; 1
    2b74:	d1 df       	rcall	.-94     	; 0x2b18 <UART1_transmit_string>
    2b76:	27 96       	adiw	r28, 0x07	; 7
    2b78:	0f b6       	in	r0, 0x3f	; 63
    2b7a:	f8 94       	cli
    2b7c:	de bf       	out	0x3e, r29	; 62
    2b7e:	0f be       	out	0x3f, r0	; 63
    2b80:	cd bf       	out	0x3d, r28	; 61
    2b82:	df 91       	pop	r29
    2b84:	cf 91       	pop	r28
    2b86:	08 95       	ret

00002b88 <I2C_Init>:
    2b88:	10 92 71 00 	sts	0x0071, r1	; 0x800071 <__TEXT_REGION_LENGTH__+0x7e0071>
    2b8c:	86 e4       	ldi	r24, 0x46	; 70
    2b8e:	80 93 70 00 	sts	0x0070, r24	; 0x800070 <__TEXT_REGION_LENGTH__+0x7e0070>
    2b92:	84 e0       	ldi	r24, 0x04	; 4
    2b94:	80 93 74 00 	sts	0x0074, r24	; 0x800074 <__TEXT_REGION_LENGTH__+0x7e0074>
    2b98:	08 95       	ret

00002b9a <I2C_Start>:
    2b9a:	84 ea       	ldi	r24, 0xA4	; 164
    2b9c:	80 93 74 00 	sts	0x0074, r24	; 0x800074 <__TEXT_REGION_LENGTH__+0x7e0074>
    2ba0:	80 91 74 00 	lds	r24, 0x0074	; 0x800074 <__TEXT_REGION_LENGTH__+0x7e0074>
    2ba4:	88 23       	and	r24, r24
    2ba6:	e4 f7       	brge	.-8      	; 0x2ba0 <I2C_Start+0x6>
    2ba8:	08 95       	ret

00002baa <I2C_Stop>:
    2baa:	84 e9       	ldi	r24, 0x94	; 148
    2bac:	80 93 74 00 	sts	0x0074, r24	; 0x800074 <__TEXT_REGION_LENGTH__+0x7e0074>
    2bb0:	08 95       	ret

00002bb2 <I2C_Write>:
    2bb2:	80 93 73 00 	sts	0x0073, r24	; 0x800073 <__TEXT_REGION_LENGTH__+0x7e0073>
    2bb6:	84 e8       	ldi	r24, 0x84	; 132
    2bb8:	80 93 74 00 	sts	0x0074, r24	; 0x800074 <__TEXT_REGION_LENGTH__+0x7e0074>
    2bbc:	80 91 74 00 	lds	r24, 0x0074	; 0x800074 <__TEXT_REGION_LENGTH__+0x7e0074>
    2bc0:	88 23       	and	r24, r24
    2bc2:	e4 f7       	brge	.-8      	; 0x2bbc <I2C_Write+0xa>
    2bc4:	08 95       	ret

00002bc6 <I2C_ReadNack>:

uint8_t I2C_ReadNack() {
	TWCR = (1 << TWEN) | (1 << TWINT); // Start receiving data without ACK
    2bc6:	84 e8       	ldi	r24, 0x84	; 132
    2bc8:	80 93 74 00 	sts	0x0074, r24	; 0x800074 <__TEXT_REGION_LENGTH__+0x7e0074>
	while (!(TWCR & (1 << TWINT))); // Wait for TWINT flag set
    2bcc:	80 91 74 00 	lds	r24, 0x0074	; 0x800074 <__TEXT_REGION_LENGTH__+0x7e0074>
    2bd0:	88 23       	and	r24, r24
    2bd2:	e4 f7       	brge	.-8      	; 0x2bcc <I2C_ReadNack+0x6>
	return TWDR;
    2bd4:	80 91 73 00 	lds	r24, 0x0073	; 0x800073 <__TEXT_REGION_LENGTH__+0x7e0073>
}
    2bd8:	08 95       	ret

00002bda <__subsf3>:
    2bda:	50 58       	subi	r21, 0x80	; 128

00002bdc <__addsf3>:
    2bdc:	bb 27       	eor	r27, r27
    2bde:	aa 27       	eor	r26, r26
    2be0:	0e d0       	rcall	.+28     	; 0x2bfe <__addsf3x>
    2be2:	4d c1       	rjmp	.+666    	; 0x2e7e <__fp_round>
    2be4:	3e d1       	rcall	.+636    	; 0x2e62 <__fp_pscA>
    2be6:	30 f0       	brcs	.+12     	; 0x2bf4 <__addsf3+0x18>
    2be8:	43 d1       	rcall	.+646    	; 0x2e70 <__fp_pscB>
    2bea:	20 f0       	brcs	.+8      	; 0x2bf4 <__addsf3+0x18>
    2bec:	31 f4       	brne	.+12     	; 0x2bfa <__addsf3+0x1e>
    2bee:	9f 3f       	cpi	r25, 0xFF	; 255
    2bf0:	11 f4       	brne	.+4      	; 0x2bf6 <__addsf3+0x1a>
    2bf2:	1e f4       	brtc	.+6      	; 0x2bfa <__addsf3+0x1e>
    2bf4:	33 c1       	rjmp	.+614    	; 0x2e5c <__fp_nan>
    2bf6:	0e f4       	brtc	.+2      	; 0x2bfa <__addsf3+0x1e>
    2bf8:	e0 95       	com	r30
    2bfa:	e7 fb       	bst	r30, 7
    2bfc:	29 c1       	rjmp	.+594    	; 0x2e50 <__fp_inf>

00002bfe <__addsf3x>:
    2bfe:	e9 2f       	mov	r30, r25
    2c00:	4f d1       	rcall	.+670    	; 0x2ea0 <__fp_split3>
    2c02:	80 f3       	brcs	.-32     	; 0x2be4 <__addsf3+0x8>
    2c04:	ba 17       	cp	r27, r26
    2c06:	62 07       	cpc	r22, r18
    2c08:	73 07       	cpc	r23, r19
    2c0a:	84 07       	cpc	r24, r20
    2c0c:	95 07       	cpc	r25, r21
    2c0e:	18 f0       	brcs	.+6      	; 0x2c16 <__addsf3x+0x18>
    2c10:	71 f4       	brne	.+28     	; 0x2c2e <__addsf3x+0x30>
    2c12:	9e f5       	brtc	.+102    	; 0x2c7a <__addsf3x+0x7c>
    2c14:	67 c1       	rjmp	.+718    	; 0x2ee4 <__fp_zero>
    2c16:	0e f4       	brtc	.+2      	; 0x2c1a <__addsf3x+0x1c>
    2c18:	e0 95       	com	r30
    2c1a:	0b 2e       	mov	r0, r27
    2c1c:	ba 2f       	mov	r27, r26
    2c1e:	a0 2d       	mov	r26, r0
    2c20:	0b 01       	movw	r0, r22
    2c22:	b9 01       	movw	r22, r18
    2c24:	90 01       	movw	r18, r0
    2c26:	0c 01       	movw	r0, r24
    2c28:	ca 01       	movw	r24, r20
    2c2a:	a0 01       	movw	r20, r0
    2c2c:	11 24       	eor	r1, r1
    2c2e:	ff 27       	eor	r31, r31
    2c30:	59 1b       	sub	r21, r25
    2c32:	99 f0       	breq	.+38     	; 0x2c5a <__addsf3x+0x5c>
    2c34:	59 3f       	cpi	r21, 0xF9	; 249
    2c36:	50 f4       	brcc	.+20     	; 0x2c4c <__addsf3x+0x4e>
    2c38:	50 3e       	cpi	r21, 0xE0	; 224
    2c3a:	68 f1       	brcs	.+90     	; 0x2c96 <__addsf3x+0x98>
    2c3c:	1a 16       	cp	r1, r26
    2c3e:	f0 40       	sbci	r31, 0x00	; 0
    2c40:	a2 2f       	mov	r26, r18
    2c42:	23 2f       	mov	r18, r19
    2c44:	34 2f       	mov	r19, r20
    2c46:	44 27       	eor	r20, r20
    2c48:	58 5f       	subi	r21, 0xF8	; 248
    2c4a:	f3 cf       	rjmp	.-26     	; 0x2c32 <__addsf3x+0x34>
    2c4c:	46 95       	lsr	r20
    2c4e:	37 95       	ror	r19
    2c50:	27 95       	ror	r18
    2c52:	a7 95       	ror	r26
    2c54:	f0 40       	sbci	r31, 0x00	; 0
    2c56:	53 95       	inc	r21
    2c58:	c9 f7       	brne	.-14     	; 0x2c4c <__addsf3x+0x4e>
    2c5a:	7e f4       	brtc	.+30     	; 0x2c7a <__addsf3x+0x7c>
    2c5c:	1f 16       	cp	r1, r31
    2c5e:	ba 0b       	sbc	r27, r26
    2c60:	62 0b       	sbc	r22, r18
    2c62:	73 0b       	sbc	r23, r19
    2c64:	84 0b       	sbc	r24, r20
    2c66:	ba f0       	brmi	.+46     	; 0x2c96 <__addsf3x+0x98>
    2c68:	91 50       	subi	r25, 0x01	; 1
    2c6a:	a1 f0       	breq	.+40     	; 0x2c94 <__addsf3x+0x96>
    2c6c:	ff 0f       	add	r31, r31
    2c6e:	bb 1f       	adc	r27, r27
    2c70:	66 1f       	adc	r22, r22
    2c72:	77 1f       	adc	r23, r23
    2c74:	88 1f       	adc	r24, r24
    2c76:	c2 f7       	brpl	.-16     	; 0x2c68 <__addsf3x+0x6a>
    2c78:	0e c0       	rjmp	.+28     	; 0x2c96 <__addsf3x+0x98>
    2c7a:	ba 0f       	add	r27, r26
    2c7c:	62 1f       	adc	r22, r18
    2c7e:	73 1f       	adc	r23, r19
    2c80:	84 1f       	adc	r24, r20
    2c82:	48 f4       	brcc	.+18     	; 0x2c96 <__addsf3x+0x98>
    2c84:	87 95       	ror	r24
    2c86:	77 95       	ror	r23
    2c88:	67 95       	ror	r22
    2c8a:	b7 95       	ror	r27
    2c8c:	f7 95       	ror	r31
    2c8e:	9e 3f       	cpi	r25, 0xFE	; 254
    2c90:	08 f0       	brcs	.+2      	; 0x2c94 <__addsf3x+0x96>
    2c92:	b3 cf       	rjmp	.-154    	; 0x2bfa <__addsf3+0x1e>
    2c94:	93 95       	inc	r25
    2c96:	88 0f       	add	r24, r24
    2c98:	08 f0       	brcs	.+2      	; 0x2c9c <__addsf3x+0x9e>
    2c9a:	99 27       	eor	r25, r25
    2c9c:	ee 0f       	add	r30, r30
    2c9e:	97 95       	ror	r25
    2ca0:	87 95       	ror	r24
    2ca2:	08 95       	ret

00002ca4 <__divsf3>:
    2ca4:	0c d0       	rcall	.+24     	; 0x2cbe <__divsf3x>
    2ca6:	eb c0       	rjmp	.+470    	; 0x2e7e <__fp_round>
    2ca8:	e3 d0       	rcall	.+454    	; 0x2e70 <__fp_pscB>
    2caa:	40 f0       	brcs	.+16     	; 0x2cbc <__divsf3+0x18>
    2cac:	da d0       	rcall	.+436    	; 0x2e62 <__fp_pscA>
    2cae:	30 f0       	brcs	.+12     	; 0x2cbc <__divsf3+0x18>
    2cb0:	21 f4       	brne	.+8      	; 0x2cba <__divsf3+0x16>
    2cb2:	5f 3f       	cpi	r21, 0xFF	; 255
    2cb4:	19 f0       	breq	.+6      	; 0x2cbc <__divsf3+0x18>
    2cb6:	cc c0       	rjmp	.+408    	; 0x2e50 <__fp_inf>
    2cb8:	51 11       	cpse	r21, r1
    2cba:	15 c1       	rjmp	.+554    	; 0x2ee6 <__fp_szero>
    2cbc:	cf c0       	rjmp	.+414    	; 0x2e5c <__fp_nan>

00002cbe <__divsf3x>:
    2cbe:	f0 d0       	rcall	.+480    	; 0x2ea0 <__fp_split3>
    2cc0:	98 f3       	brcs	.-26     	; 0x2ca8 <__divsf3+0x4>

00002cc2 <__divsf3_pse>:
    2cc2:	99 23       	and	r25, r25
    2cc4:	c9 f3       	breq	.-14     	; 0x2cb8 <__divsf3+0x14>
    2cc6:	55 23       	and	r21, r21
    2cc8:	b1 f3       	breq	.-20     	; 0x2cb6 <__divsf3+0x12>
    2cca:	95 1b       	sub	r25, r21
    2ccc:	55 0b       	sbc	r21, r21
    2cce:	bb 27       	eor	r27, r27
    2cd0:	aa 27       	eor	r26, r26
    2cd2:	62 17       	cp	r22, r18
    2cd4:	73 07       	cpc	r23, r19
    2cd6:	84 07       	cpc	r24, r20
    2cd8:	38 f0       	brcs	.+14     	; 0x2ce8 <__divsf3_pse+0x26>
    2cda:	9f 5f       	subi	r25, 0xFF	; 255
    2cdc:	5f 4f       	sbci	r21, 0xFF	; 255
    2cde:	22 0f       	add	r18, r18
    2ce0:	33 1f       	adc	r19, r19
    2ce2:	44 1f       	adc	r20, r20
    2ce4:	aa 1f       	adc	r26, r26
    2ce6:	a9 f3       	breq	.-22     	; 0x2cd2 <__divsf3_pse+0x10>
    2ce8:	33 d0       	rcall	.+102    	; 0x2d50 <__divsf3_pse+0x8e>
    2cea:	0e 2e       	mov	r0, r30
    2cec:	3a f0       	brmi	.+14     	; 0x2cfc <__divsf3_pse+0x3a>
    2cee:	e0 e8       	ldi	r30, 0x80	; 128
    2cf0:	30 d0       	rcall	.+96     	; 0x2d52 <__divsf3_pse+0x90>
    2cf2:	91 50       	subi	r25, 0x01	; 1
    2cf4:	50 40       	sbci	r21, 0x00	; 0
    2cf6:	e6 95       	lsr	r30
    2cf8:	00 1c       	adc	r0, r0
    2cfa:	ca f7       	brpl	.-14     	; 0x2cee <__divsf3_pse+0x2c>
    2cfc:	29 d0       	rcall	.+82     	; 0x2d50 <__divsf3_pse+0x8e>
    2cfe:	fe 2f       	mov	r31, r30
    2d00:	27 d0       	rcall	.+78     	; 0x2d50 <__divsf3_pse+0x8e>
    2d02:	66 0f       	add	r22, r22
    2d04:	77 1f       	adc	r23, r23
    2d06:	88 1f       	adc	r24, r24
    2d08:	bb 1f       	adc	r27, r27
    2d0a:	26 17       	cp	r18, r22
    2d0c:	37 07       	cpc	r19, r23
    2d0e:	48 07       	cpc	r20, r24
    2d10:	ab 07       	cpc	r26, r27
    2d12:	b0 e8       	ldi	r27, 0x80	; 128
    2d14:	09 f0       	breq	.+2      	; 0x2d18 <__divsf3_pse+0x56>
    2d16:	bb 0b       	sbc	r27, r27
    2d18:	80 2d       	mov	r24, r0
    2d1a:	bf 01       	movw	r22, r30
    2d1c:	ff 27       	eor	r31, r31
    2d1e:	93 58       	subi	r25, 0x83	; 131
    2d20:	5f 4f       	sbci	r21, 0xFF	; 255
    2d22:	2a f0       	brmi	.+10     	; 0x2d2e <__divsf3_pse+0x6c>
    2d24:	9e 3f       	cpi	r25, 0xFE	; 254
    2d26:	51 05       	cpc	r21, r1
    2d28:	68 f0       	brcs	.+26     	; 0x2d44 <__divsf3_pse+0x82>
    2d2a:	92 c0       	rjmp	.+292    	; 0x2e50 <__fp_inf>
    2d2c:	dc c0       	rjmp	.+440    	; 0x2ee6 <__fp_szero>
    2d2e:	5f 3f       	cpi	r21, 0xFF	; 255
    2d30:	ec f3       	brlt	.-6      	; 0x2d2c <__divsf3_pse+0x6a>
    2d32:	98 3e       	cpi	r25, 0xE8	; 232
    2d34:	dc f3       	brlt	.-10     	; 0x2d2c <__divsf3_pse+0x6a>
    2d36:	86 95       	lsr	r24
    2d38:	77 95       	ror	r23
    2d3a:	67 95       	ror	r22
    2d3c:	b7 95       	ror	r27
    2d3e:	f7 95       	ror	r31
    2d40:	9f 5f       	subi	r25, 0xFF	; 255
    2d42:	c9 f7       	brne	.-14     	; 0x2d36 <__divsf3_pse+0x74>
    2d44:	88 0f       	add	r24, r24
    2d46:	91 1d       	adc	r25, r1
    2d48:	96 95       	lsr	r25
    2d4a:	87 95       	ror	r24
    2d4c:	97 f9       	bld	r25, 7
    2d4e:	08 95       	ret
    2d50:	e1 e0       	ldi	r30, 0x01	; 1
    2d52:	66 0f       	add	r22, r22
    2d54:	77 1f       	adc	r23, r23
    2d56:	88 1f       	adc	r24, r24
    2d58:	bb 1f       	adc	r27, r27
    2d5a:	62 17       	cp	r22, r18
    2d5c:	73 07       	cpc	r23, r19
    2d5e:	84 07       	cpc	r24, r20
    2d60:	ba 07       	cpc	r27, r26
    2d62:	20 f0       	brcs	.+8      	; 0x2d6c <__divsf3_pse+0xaa>
    2d64:	62 1b       	sub	r22, r18
    2d66:	73 0b       	sbc	r23, r19
    2d68:	84 0b       	sbc	r24, r20
    2d6a:	ba 0b       	sbc	r27, r26
    2d6c:	ee 1f       	adc	r30, r30
    2d6e:	88 f7       	brcc	.-30     	; 0x2d52 <__divsf3_pse+0x90>
    2d70:	e0 95       	com	r30
    2d72:	08 95       	ret

00002d74 <__fixsfsi>:
    2d74:	04 d0       	rcall	.+8      	; 0x2d7e <__fixunssfsi>
    2d76:	68 94       	set
    2d78:	b1 11       	cpse	r27, r1
    2d7a:	b5 c0       	rjmp	.+362    	; 0x2ee6 <__fp_szero>
    2d7c:	08 95       	ret

00002d7e <__fixunssfsi>:
    2d7e:	98 d0       	rcall	.+304    	; 0x2eb0 <__fp_splitA>
    2d80:	88 f0       	brcs	.+34     	; 0x2da4 <__fixunssfsi+0x26>
    2d82:	9f 57       	subi	r25, 0x7F	; 127
    2d84:	90 f0       	brcs	.+36     	; 0x2daa <__fixunssfsi+0x2c>
    2d86:	b9 2f       	mov	r27, r25
    2d88:	99 27       	eor	r25, r25
    2d8a:	b7 51       	subi	r27, 0x17	; 23
    2d8c:	a0 f0       	brcs	.+40     	; 0x2db6 <__fixunssfsi+0x38>
    2d8e:	d1 f0       	breq	.+52     	; 0x2dc4 <__fixunssfsi+0x46>
    2d90:	66 0f       	add	r22, r22
    2d92:	77 1f       	adc	r23, r23
    2d94:	88 1f       	adc	r24, r24
    2d96:	99 1f       	adc	r25, r25
    2d98:	1a f0       	brmi	.+6      	; 0x2da0 <__fixunssfsi+0x22>
    2d9a:	ba 95       	dec	r27
    2d9c:	c9 f7       	brne	.-14     	; 0x2d90 <__fixunssfsi+0x12>
    2d9e:	12 c0       	rjmp	.+36     	; 0x2dc4 <__fixunssfsi+0x46>
    2da0:	b1 30       	cpi	r27, 0x01	; 1
    2da2:	81 f0       	breq	.+32     	; 0x2dc4 <__fixunssfsi+0x46>
    2da4:	9f d0       	rcall	.+318    	; 0x2ee4 <__fp_zero>
    2da6:	b1 e0       	ldi	r27, 0x01	; 1
    2da8:	08 95       	ret
    2daa:	9c c0       	rjmp	.+312    	; 0x2ee4 <__fp_zero>
    2dac:	67 2f       	mov	r22, r23
    2dae:	78 2f       	mov	r23, r24
    2db0:	88 27       	eor	r24, r24
    2db2:	b8 5f       	subi	r27, 0xF8	; 248
    2db4:	39 f0       	breq	.+14     	; 0x2dc4 <__fixunssfsi+0x46>
    2db6:	b9 3f       	cpi	r27, 0xF9	; 249
    2db8:	cc f3       	brlt	.-14     	; 0x2dac <__fixunssfsi+0x2e>
    2dba:	86 95       	lsr	r24
    2dbc:	77 95       	ror	r23
    2dbe:	67 95       	ror	r22
    2dc0:	b3 95       	inc	r27
    2dc2:	d9 f7       	brne	.-10     	; 0x2dba <__fixunssfsi+0x3c>
    2dc4:	3e f4       	brtc	.+14     	; 0x2dd4 <__fixunssfsi+0x56>
    2dc6:	90 95       	com	r25
    2dc8:	80 95       	com	r24
    2dca:	70 95       	com	r23
    2dcc:	61 95       	neg	r22
    2dce:	7f 4f       	sbci	r23, 0xFF	; 255
    2dd0:	8f 4f       	sbci	r24, 0xFF	; 255
    2dd2:	9f 4f       	sbci	r25, 0xFF	; 255
    2dd4:	08 95       	ret

00002dd6 <__floatunsisf>:
    2dd6:	e8 94       	clt
    2dd8:	09 c0       	rjmp	.+18     	; 0x2dec <__floatsisf+0x12>

00002dda <__floatsisf>:
    2dda:	97 fb       	bst	r25, 7
    2ddc:	3e f4       	brtc	.+14     	; 0x2dec <__floatsisf+0x12>
    2dde:	90 95       	com	r25
    2de0:	80 95       	com	r24
    2de2:	70 95       	com	r23
    2de4:	61 95       	neg	r22
    2de6:	7f 4f       	sbci	r23, 0xFF	; 255
    2de8:	8f 4f       	sbci	r24, 0xFF	; 255
    2dea:	9f 4f       	sbci	r25, 0xFF	; 255
    2dec:	99 23       	and	r25, r25
    2dee:	a9 f0       	breq	.+42     	; 0x2e1a <__floatsisf+0x40>
    2df0:	f9 2f       	mov	r31, r25
    2df2:	96 e9       	ldi	r25, 0x96	; 150
    2df4:	bb 27       	eor	r27, r27
    2df6:	93 95       	inc	r25
    2df8:	f6 95       	lsr	r31
    2dfa:	87 95       	ror	r24
    2dfc:	77 95       	ror	r23
    2dfe:	67 95       	ror	r22
    2e00:	b7 95       	ror	r27
    2e02:	f1 11       	cpse	r31, r1
    2e04:	f8 cf       	rjmp	.-16     	; 0x2df6 <__floatsisf+0x1c>
    2e06:	fa f4       	brpl	.+62     	; 0x2e46 <__floatsisf+0x6c>
    2e08:	bb 0f       	add	r27, r27
    2e0a:	11 f4       	brne	.+4      	; 0x2e10 <__floatsisf+0x36>
    2e0c:	60 ff       	sbrs	r22, 0
    2e0e:	1b c0       	rjmp	.+54     	; 0x2e46 <__floatsisf+0x6c>
    2e10:	6f 5f       	subi	r22, 0xFF	; 255
    2e12:	7f 4f       	sbci	r23, 0xFF	; 255
    2e14:	8f 4f       	sbci	r24, 0xFF	; 255
    2e16:	9f 4f       	sbci	r25, 0xFF	; 255
    2e18:	16 c0       	rjmp	.+44     	; 0x2e46 <__floatsisf+0x6c>
    2e1a:	88 23       	and	r24, r24
    2e1c:	11 f0       	breq	.+4      	; 0x2e22 <__floatsisf+0x48>
    2e1e:	96 e9       	ldi	r25, 0x96	; 150
    2e20:	11 c0       	rjmp	.+34     	; 0x2e44 <__floatsisf+0x6a>
    2e22:	77 23       	and	r23, r23
    2e24:	21 f0       	breq	.+8      	; 0x2e2e <__floatsisf+0x54>
    2e26:	9e e8       	ldi	r25, 0x8E	; 142
    2e28:	87 2f       	mov	r24, r23
    2e2a:	76 2f       	mov	r23, r22
    2e2c:	05 c0       	rjmp	.+10     	; 0x2e38 <__floatsisf+0x5e>
    2e2e:	66 23       	and	r22, r22
    2e30:	71 f0       	breq	.+28     	; 0x2e4e <__floatsisf+0x74>
    2e32:	96 e8       	ldi	r25, 0x86	; 134
    2e34:	86 2f       	mov	r24, r22
    2e36:	70 e0       	ldi	r23, 0x00	; 0
    2e38:	60 e0       	ldi	r22, 0x00	; 0
    2e3a:	2a f0       	brmi	.+10     	; 0x2e46 <__floatsisf+0x6c>
    2e3c:	9a 95       	dec	r25
    2e3e:	66 0f       	add	r22, r22
    2e40:	77 1f       	adc	r23, r23
    2e42:	88 1f       	adc	r24, r24
    2e44:	da f7       	brpl	.-10     	; 0x2e3c <__floatsisf+0x62>
    2e46:	88 0f       	add	r24, r24
    2e48:	96 95       	lsr	r25
    2e4a:	87 95       	ror	r24
    2e4c:	97 f9       	bld	r25, 7
    2e4e:	08 95       	ret

00002e50 <__fp_inf>:
    2e50:	97 f9       	bld	r25, 7
    2e52:	9f 67       	ori	r25, 0x7F	; 127
    2e54:	80 e8       	ldi	r24, 0x80	; 128
    2e56:	70 e0       	ldi	r23, 0x00	; 0
    2e58:	60 e0       	ldi	r22, 0x00	; 0
    2e5a:	08 95       	ret

00002e5c <__fp_nan>:
    2e5c:	9f ef       	ldi	r25, 0xFF	; 255
    2e5e:	80 ec       	ldi	r24, 0xC0	; 192
    2e60:	08 95       	ret

00002e62 <__fp_pscA>:
    2e62:	00 24       	eor	r0, r0
    2e64:	0a 94       	dec	r0
    2e66:	16 16       	cp	r1, r22
    2e68:	17 06       	cpc	r1, r23
    2e6a:	18 06       	cpc	r1, r24
    2e6c:	09 06       	cpc	r0, r25
    2e6e:	08 95       	ret

00002e70 <__fp_pscB>:
    2e70:	00 24       	eor	r0, r0
    2e72:	0a 94       	dec	r0
    2e74:	12 16       	cp	r1, r18
    2e76:	13 06       	cpc	r1, r19
    2e78:	14 06       	cpc	r1, r20
    2e7a:	05 06       	cpc	r0, r21
    2e7c:	08 95       	ret

00002e7e <__fp_round>:
    2e7e:	09 2e       	mov	r0, r25
    2e80:	03 94       	inc	r0
    2e82:	00 0c       	add	r0, r0
    2e84:	11 f4       	brne	.+4      	; 0x2e8a <__fp_round+0xc>
    2e86:	88 23       	and	r24, r24
    2e88:	52 f0       	brmi	.+20     	; 0x2e9e <__fp_round+0x20>
    2e8a:	bb 0f       	add	r27, r27
    2e8c:	40 f4       	brcc	.+16     	; 0x2e9e <__fp_round+0x20>
    2e8e:	bf 2b       	or	r27, r31
    2e90:	11 f4       	brne	.+4      	; 0x2e96 <__fp_round+0x18>
    2e92:	60 ff       	sbrs	r22, 0
    2e94:	04 c0       	rjmp	.+8      	; 0x2e9e <__fp_round+0x20>
    2e96:	6f 5f       	subi	r22, 0xFF	; 255
    2e98:	7f 4f       	sbci	r23, 0xFF	; 255
    2e9a:	8f 4f       	sbci	r24, 0xFF	; 255
    2e9c:	9f 4f       	sbci	r25, 0xFF	; 255
    2e9e:	08 95       	ret

00002ea0 <__fp_split3>:
    2ea0:	57 fd       	sbrc	r21, 7
    2ea2:	90 58       	subi	r25, 0x80	; 128
    2ea4:	44 0f       	add	r20, r20
    2ea6:	55 1f       	adc	r21, r21
    2ea8:	59 f0       	breq	.+22     	; 0x2ec0 <__fp_splitA+0x10>
    2eaa:	5f 3f       	cpi	r21, 0xFF	; 255
    2eac:	71 f0       	breq	.+28     	; 0x2eca <__fp_splitA+0x1a>
    2eae:	47 95       	ror	r20

00002eb0 <__fp_splitA>:
    2eb0:	88 0f       	add	r24, r24
    2eb2:	97 fb       	bst	r25, 7
    2eb4:	99 1f       	adc	r25, r25
    2eb6:	61 f0       	breq	.+24     	; 0x2ed0 <__fp_splitA+0x20>
    2eb8:	9f 3f       	cpi	r25, 0xFF	; 255
    2eba:	79 f0       	breq	.+30     	; 0x2eda <__fp_splitA+0x2a>
    2ebc:	87 95       	ror	r24
    2ebe:	08 95       	ret
    2ec0:	12 16       	cp	r1, r18
    2ec2:	13 06       	cpc	r1, r19
    2ec4:	14 06       	cpc	r1, r20
    2ec6:	55 1f       	adc	r21, r21
    2ec8:	f2 cf       	rjmp	.-28     	; 0x2eae <__fp_split3+0xe>
    2eca:	46 95       	lsr	r20
    2ecc:	f1 df       	rcall	.-30     	; 0x2eb0 <__fp_splitA>
    2ece:	08 c0       	rjmp	.+16     	; 0x2ee0 <__fp_splitA+0x30>
    2ed0:	16 16       	cp	r1, r22
    2ed2:	17 06       	cpc	r1, r23
    2ed4:	18 06       	cpc	r1, r24
    2ed6:	99 1f       	adc	r25, r25
    2ed8:	f1 cf       	rjmp	.-30     	; 0x2ebc <__fp_splitA+0xc>
    2eda:	86 95       	lsr	r24
    2edc:	71 05       	cpc	r23, r1
    2ede:	61 05       	cpc	r22, r1
    2ee0:	08 94       	sec
    2ee2:	08 95       	ret

00002ee4 <__fp_zero>:
    2ee4:	e8 94       	clt

00002ee6 <__fp_szero>:
    2ee6:	bb 27       	eor	r27, r27
    2ee8:	66 27       	eor	r22, r22
    2eea:	77 27       	eor	r23, r23
    2eec:	cb 01       	movw	r24, r22
    2eee:	97 f9       	bld	r25, 7
    2ef0:	08 95       	ret

00002ef2 <__gesf2>:
    2ef2:	a8 d0       	rcall	.+336    	; 0x3044 <__fp_cmp>
    2ef4:	08 f4       	brcc	.+2      	; 0x2ef8 <__gesf2+0x6>
    2ef6:	8f ef       	ldi	r24, 0xFF	; 255
    2ef8:	08 95       	ret

00002efa <__mulsf3>:
    2efa:	0b d0       	rcall	.+22     	; 0x2f12 <__mulsf3x>
    2efc:	c0 cf       	rjmp	.-128    	; 0x2e7e <__fp_round>
    2efe:	b1 df       	rcall	.-158    	; 0x2e62 <__fp_pscA>
    2f00:	28 f0       	brcs	.+10     	; 0x2f0c <__mulsf3+0x12>
    2f02:	b6 df       	rcall	.-148    	; 0x2e70 <__fp_pscB>
    2f04:	18 f0       	brcs	.+6      	; 0x2f0c <__mulsf3+0x12>
    2f06:	95 23       	and	r25, r21
    2f08:	09 f0       	breq	.+2      	; 0x2f0c <__mulsf3+0x12>
    2f0a:	a2 cf       	rjmp	.-188    	; 0x2e50 <__fp_inf>
    2f0c:	a7 cf       	rjmp	.-178    	; 0x2e5c <__fp_nan>
    2f0e:	11 24       	eor	r1, r1
    2f10:	ea cf       	rjmp	.-44     	; 0x2ee6 <__fp_szero>

00002f12 <__mulsf3x>:
    2f12:	c6 df       	rcall	.-116    	; 0x2ea0 <__fp_split3>
    2f14:	a0 f3       	brcs	.-24     	; 0x2efe <__mulsf3+0x4>

00002f16 <__mulsf3_pse>:
    2f16:	95 9f       	mul	r25, r21
    2f18:	d1 f3       	breq	.-12     	; 0x2f0e <__mulsf3+0x14>
    2f1a:	95 0f       	add	r25, r21
    2f1c:	50 e0       	ldi	r21, 0x00	; 0
    2f1e:	55 1f       	adc	r21, r21
    2f20:	62 9f       	mul	r22, r18
    2f22:	f0 01       	movw	r30, r0
    2f24:	72 9f       	mul	r23, r18
    2f26:	bb 27       	eor	r27, r27
    2f28:	f0 0d       	add	r31, r0
    2f2a:	b1 1d       	adc	r27, r1
    2f2c:	63 9f       	mul	r22, r19
    2f2e:	aa 27       	eor	r26, r26
    2f30:	f0 0d       	add	r31, r0
    2f32:	b1 1d       	adc	r27, r1
    2f34:	aa 1f       	adc	r26, r26
    2f36:	64 9f       	mul	r22, r20
    2f38:	66 27       	eor	r22, r22
    2f3a:	b0 0d       	add	r27, r0
    2f3c:	a1 1d       	adc	r26, r1
    2f3e:	66 1f       	adc	r22, r22
    2f40:	82 9f       	mul	r24, r18
    2f42:	22 27       	eor	r18, r18
    2f44:	b0 0d       	add	r27, r0
    2f46:	a1 1d       	adc	r26, r1
    2f48:	62 1f       	adc	r22, r18
    2f4a:	73 9f       	mul	r23, r19
    2f4c:	b0 0d       	add	r27, r0
    2f4e:	a1 1d       	adc	r26, r1
    2f50:	62 1f       	adc	r22, r18
    2f52:	83 9f       	mul	r24, r19
    2f54:	a0 0d       	add	r26, r0
    2f56:	61 1d       	adc	r22, r1
    2f58:	22 1f       	adc	r18, r18
    2f5a:	74 9f       	mul	r23, r20
    2f5c:	33 27       	eor	r19, r19
    2f5e:	a0 0d       	add	r26, r0
    2f60:	61 1d       	adc	r22, r1
    2f62:	23 1f       	adc	r18, r19
    2f64:	84 9f       	mul	r24, r20
    2f66:	60 0d       	add	r22, r0
    2f68:	21 1d       	adc	r18, r1
    2f6a:	82 2f       	mov	r24, r18
    2f6c:	76 2f       	mov	r23, r22
    2f6e:	6a 2f       	mov	r22, r26
    2f70:	11 24       	eor	r1, r1
    2f72:	9f 57       	subi	r25, 0x7F	; 127
    2f74:	50 40       	sbci	r21, 0x00	; 0
    2f76:	8a f0       	brmi	.+34     	; 0x2f9a <__mulsf3_pse+0x84>
    2f78:	e1 f0       	breq	.+56     	; 0x2fb2 <__mulsf3_pse+0x9c>
    2f7a:	88 23       	and	r24, r24
    2f7c:	4a f0       	brmi	.+18     	; 0x2f90 <__mulsf3_pse+0x7a>
    2f7e:	ee 0f       	add	r30, r30
    2f80:	ff 1f       	adc	r31, r31
    2f82:	bb 1f       	adc	r27, r27
    2f84:	66 1f       	adc	r22, r22
    2f86:	77 1f       	adc	r23, r23
    2f88:	88 1f       	adc	r24, r24
    2f8a:	91 50       	subi	r25, 0x01	; 1
    2f8c:	50 40       	sbci	r21, 0x00	; 0
    2f8e:	a9 f7       	brne	.-22     	; 0x2f7a <__mulsf3_pse+0x64>
    2f90:	9e 3f       	cpi	r25, 0xFE	; 254
    2f92:	51 05       	cpc	r21, r1
    2f94:	70 f0       	brcs	.+28     	; 0x2fb2 <__mulsf3_pse+0x9c>
    2f96:	5c cf       	rjmp	.-328    	; 0x2e50 <__fp_inf>
    2f98:	a6 cf       	rjmp	.-180    	; 0x2ee6 <__fp_szero>
    2f9a:	5f 3f       	cpi	r21, 0xFF	; 255
    2f9c:	ec f3       	brlt	.-6      	; 0x2f98 <__mulsf3_pse+0x82>
    2f9e:	98 3e       	cpi	r25, 0xE8	; 232
    2fa0:	dc f3       	brlt	.-10     	; 0x2f98 <__mulsf3_pse+0x82>
    2fa2:	86 95       	lsr	r24
    2fa4:	77 95       	ror	r23
    2fa6:	67 95       	ror	r22
    2fa8:	b7 95       	ror	r27
    2faa:	f7 95       	ror	r31
    2fac:	e7 95       	ror	r30
    2fae:	9f 5f       	subi	r25, 0xFF	; 255
    2fb0:	c1 f7       	brne	.-16     	; 0x2fa2 <__mulsf3_pse+0x8c>
    2fb2:	fe 2b       	or	r31, r30
    2fb4:	88 0f       	add	r24, r24
    2fb6:	91 1d       	adc	r25, r1
    2fb8:	96 95       	lsr	r25
    2fba:	87 95       	ror	r24
    2fbc:	97 f9       	bld	r25, 7
    2fbe:	08 95       	ret
    2fc0:	11 f4       	brne	.+4      	; 0x2fc6 <__mulsf3_pse+0xb0>
    2fc2:	0e f4       	brtc	.+2      	; 0x2fc6 <__mulsf3_pse+0xb0>
    2fc4:	4b cf       	rjmp	.-362    	; 0x2e5c <__fp_nan>
    2fc6:	62 c0       	rjmp	.+196    	; 0x308c <__fp_mpack>

00002fc8 <sqrt>:
    2fc8:	73 df       	rcall	.-282    	; 0x2eb0 <__fp_splitA>
    2fca:	d0 f3       	brcs	.-12     	; 0x2fc0 <__mulsf3_pse+0xaa>
    2fcc:	99 23       	and	r25, r25
    2fce:	d9 f3       	breq	.-10     	; 0x2fc6 <__mulsf3_pse+0xb0>
    2fd0:	ce f3       	brts	.-14     	; 0x2fc4 <__mulsf3_pse+0xae>
    2fd2:	9f 57       	subi	r25, 0x7F	; 127
    2fd4:	55 0b       	sbc	r21, r21
    2fd6:	87 ff       	sbrs	r24, 7
    2fd8:	67 d0       	rcall	.+206    	; 0x30a8 <__fp_norm2>
    2fda:	00 24       	eor	r0, r0
    2fdc:	a0 e6       	ldi	r26, 0x60	; 96
    2fde:	40 ea       	ldi	r20, 0xA0	; 160
    2fe0:	90 01       	movw	r18, r0
    2fe2:	80 58       	subi	r24, 0x80	; 128
    2fe4:	56 95       	lsr	r21
    2fe6:	97 95       	ror	r25
    2fe8:	28 f4       	brcc	.+10     	; 0x2ff4 <sqrt+0x2c>
    2fea:	80 5c       	subi	r24, 0xC0	; 192
    2fec:	66 0f       	add	r22, r22
    2fee:	77 1f       	adc	r23, r23
    2ff0:	88 1f       	adc	r24, r24
    2ff2:	20 f0       	brcs	.+8      	; 0x2ffc <sqrt+0x34>
    2ff4:	26 17       	cp	r18, r22
    2ff6:	37 07       	cpc	r19, r23
    2ff8:	48 07       	cpc	r20, r24
    2ffa:	30 f4       	brcc	.+12     	; 0x3008 <sqrt+0x40>
    2ffc:	62 1b       	sub	r22, r18
    2ffe:	73 0b       	sbc	r23, r19
    3000:	84 0b       	sbc	r24, r20
    3002:	20 29       	or	r18, r0
    3004:	31 29       	or	r19, r1
    3006:	4a 2b       	or	r20, r26
    3008:	a6 95       	lsr	r26
    300a:	17 94       	ror	r1
    300c:	07 94       	ror	r0
    300e:	20 25       	eor	r18, r0
    3010:	31 25       	eor	r19, r1
    3012:	4a 27       	eor	r20, r26
    3014:	58 f7       	brcc	.-42     	; 0x2fec <sqrt+0x24>
    3016:	66 0f       	add	r22, r22
    3018:	77 1f       	adc	r23, r23
    301a:	88 1f       	adc	r24, r24
    301c:	20 f0       	brcs	.+8      	; 0x3026 <sqrt+0x5e>
    301e:	26 17       	cp	r18, r22
    3020:	37 07       	cpc	r19, r23
    3022:	48 07       	cpc	r20, r24
    3024:	30 f4       	brcc	.+12     	; 0x3032 <sqrt+0x6a>
    3026:	62 0b       	sbc	r22, r18
    3028:	73 0b       	sbc	r23, r19
    302a:	84 0b       	sbc	r24, r20
    302c:	20 0d       	add	r18, r0
    302e:	31 1d       	adc	r19, r1
    3030:	41 1d       	adc	r20, r1
    3032:	a0 95       	com	r26
    3034:	81 f7       	brne	.-32     	; 0x3016 <sqrt+0x4e>
    3036:	b9 01       	movw	r22, r18
    3038:	84 2f       	mov	r24, r20
    303a:	91 58       	subi	r25, 0x81	; 129
    303c:	88 0f       	add	r24, r24
    303e:	96 95       	lsr	r25
    3040:	87 95       	ror	r24
    3042:	08 95       	ret

00003044 <__fp_cmp>:
    3044:	99 0f       	add	r25, r25
    3046:	00 08       	sbc	r0, r0
    3048:	55 0f       	add	r21, r21
    304a:	aa 0b       	sbc	r26, r26
    304c:	e0 e8       	ldi	r30, 0x80	; 128
    304e:	fe ef       	ldi	r31, 0xFE	; 254
    3050:	16 16       	cp	r1, r22
    3052:	17 06       	cpc	r1, r23
    3054:	e8 07       	cpc	r30, r24
    3056:	f9 07       	cpc	r31, r25
    3058:	c0 f0       	brcs	.+48     	; 0x308a <__fp_cmp+0x46>
    305a:	12 16       	cp	r1, r18
    305c:	13 06       	cpc	r1, r19
    305e:	e4 07       	cpc	r30, r20
    3060:	f5 07       	cpc	r31, r21
    3062:	98 f0       	brcs	.+38     	; 0x308a <__fp_cmp+0x46>
    3064:	62 1b       	sub	r22, r18
    3066:	73 0b       	sbc	r23, r19
    3068:	84 0b       	sbc	r24, r20
    306a:	95 0b       	sbc	r25, r21
    306c:	39 f4       	brne	.+14     	; 0x307c <__fp_cmp+0x38>
    306e:	0a 26       	eor	r0, r26
    3070:	61 f0       	breq	.+24     	; 0x308a <__fp_cmp+0x46>
    3072:	23 2b       	or	r18, r19
    3074:	24 2b       	or	r18, r20
    3076:	25 2b       	or	r18, r21
    3078:	21 f4       	brne	.+8      	; 0x3082 <__fp_cmp+0x3e>
    307a:	08 95       	ret
    307c:	0a 26       	eor	r0, r26
    307e:	09 f4       	brne	.+2      	; 0x3082 <__fp_cmp+0x3e>
    3080:	a1 40       	sbci	r26, 0x01	; 1
    3082:	a6 95       	lsr	r26
    3084:	8f ef       	ldi	r24, 0xFF	; 255
    3086:	81 1d       	adc	r24, r1
    3088:	81 1d       	adc	r24, r1
    308a:	08 95       	ret

0000308c <__fp_mpack>:
    308c:	9f 3f       	cpi	r25, 0xFF	; 255
    308e:	31 f0       	breq	.+12     	; 0x309c <__fp_mpack_finite+0xc>

00003090 <__fp_mpack_finite>:
    3090:	91 50       	subi	r25, 0x01	; 1
    3092:	20 f4       	brcc	.+8      	; 0x309c <__fp_mpack_finite+0xc>
    3094:	87 95       	ror	r24
    3096:	77 95       	ror	r23
    3098:	67 95       	ror	r22
    309a:	b7 95       	ror	r27
    309c:	88 0f       	add	r24, r24
    309e:	91 1d       	adc	r25, r1
    30a0:	96 95       	lsr	r25
    30a2:	87 95       	ror	r24
    30a4:	97 f9       	bld	r25, 7
    30a6:	08 95       	ret

000030a8 <__fp_norm2>:
    30a8:	91 50       	subi	r25, 0x01	; 1
    30aa:	50 40       	sbci	r21, 0x00	; 0
    30ac:	66 0f       	add	r22, r22
    30ae:	77 1f       	adc	r23, r23
    30b0:	88 1f       	adc	r24, r24
    30b2:	d2 f7       	brpl	.-12     	; 0x30a8 <__fp_norm2>
    30b4:	08 95       	ret

000030b6 <__udivmodsi4>:
    30b6:	a1 e2       	ldi	r26, 0x21	; 33
    30b8:	1a 2e       	mov	r1, r26
    30ba:	aa 1b       	sub	r26, r26
    30bc:	bb 1b       	sub	r27, r27
    30be:	fd 01       	movw	r30, r26
    30c0:	0d c0       	rjmp	.+26     	; 0x30dc <__udivmodsi4_ep>

000030c2 <__udivmodsi4_loop>:
    30c2:	aa 1f       	adc	r26, r26
    30c4:	bb 1f       	adc	r27, r27
    30c6:	ee 1f       	adc	r30, r30
    30c8:	ff 1f       	adc	r31, r31
    30ca:	a2 17       	cp	r26, r18
    30cc:	b3 07       	cpc	r27, r19
    30ce:	e4 07       	cpc	r30, r20
    30d0:	f5 07       	cpc	r31, r21
    30d2:	20 f0       	brcs	.+8      	; 0x30dc <__udivmodsi4_ep>
    30d4:	a2 1b       	sub	r26, r18
    30d6:	b3 0b       	sbc	r27, r19
    30d8:	e4 0b       	sbc	r30, r20
    30da:	f5 0b       	sbc	r31, r21

000030dc <__udivmodsi4_ep>:
    30dc:	66 1f       	adc	r22, r22
    30de:	77 1f       	adc	r23, r23
    30e0:	88 1f       	adc	r24, r24
    30e2:	99 1f       	adc	r25, r25
    30e4:	1a 94       	dec	r1
    30e6:	69 f7       	brne	.-38     	; 0x30c2 <__udivmodsi4_loop>
    30e8:	60 95       	com	r22
    30ea:	70 95       	com	r23
    30ec:	80 95       	com	r24
    30ee:	90 95       	com	r25
    30f0:	9b 01       	movw	r18, r22
    30f2:	ac 01       	movw	r20, r24
    30f4:	bd 01       	movw	r22, r26
    30f6:	cf 01       	movw	r24, r30
    30f8:	08 95       	ret

000030fa <__itoa_ncheck>:
    30fa:	bb 27       	eor	r27, r27
    30fc:	4a 30       	cpi	r20, 0x0A	; 10
    30fe:	31 f4       	brne	.+12     	; 0x310c <__itoa_ncheck+0x12>
    3100:	99 23       	and	r25, r25
    3102:	22 f4       	brpl	.+8      	; 0x310c <__itoa_ncheck+0x12>
    3104:	bd e2       	ldi	r27, 0x2D	; 45
    3106:	90 95       	com	r25
    3108:	81 95       	neg	r24
    310a:	9f 4f       	sbci	r25, 0xFF	; 255
    310c:	01 c0       	rjmp	.+2      	; 0x3110 <__utoa_common>

0000310e <__utoa_ncheck>:
    310e:	bb 27       	eor	r27, r27

00003110 <__utoa_common>:
    3110:	fb 01       	movw	r30, r22
    3112:	55 27       	eor	r21, r21
    3114:	aa 27       	eor	r26, r26
    3116:	88 0f       	add	r24, r24
    3118:	99 1f       	adc	r25, r25
    311a:	aa 1f       	adc	r26, r26
    311c:	a4 17       	cp	r26, r20
    311e:	10 f0       	brcs	.+4      	; 0x3124 <__utoa_common+0x14>
    3120:	a4 1b       	sub	r26, r20
    3122:	83 95       	inc	r24
    3124:	50 51       	subi	r21, 0x10	; 16
    3126:	b9 f7       	brne	.-18     	; 0x3116 <__utoa_common+0x6>
    3128:	a0 5d       	subi	r26, 0xD0	; 208
    312a:	aa 33       	cpi	r26, 0x3A	; 58
    312c:	08 f0       	brcs	.+2      	; 0x3130 <__utoa_common+0x20>
    312e:	a9 5d       	subi	r26, 0xD9	; 217
    3130:	a1 93       	st	Z+, r26
    3132:	00 97       	sbiw	r24, 0x00	; 0
    3134:	79 f7       	brne	.-34     	; 0x3114 <__utoa_common+0x4>
    3136:	b1 11       	cpse	r27, r1
    3138:	b1 93       	st	Z+, r27
    313a:	11 92       	st	Z+, r1
    313c:	cb 01       	movw	r24, r22
    313e:	00 c0       	rjmp	.+0      	; 0x3140 <strrev>

00003140 <strrev>:
    3140:	dc 01       	movw	r26, r24
    3142:	fc 01       	movw	r30, r24
    3144:	67 2f       	mov	r22, r23
    3146:	71 91       	ld	r23, Z+
    3148:	77 23       	and	r23, r23
    314a:	e1 f7       	brne	.-8      	; 0x3144 <strrev+0x4>
    314c:	32 97       	sbiw	r30, 0x02	; 2
    314e:	04 c0       	rjmp	.+8      	; 0x3158 <strrev+0x18>
    3150:	7c 91       	ld	r23, X
    3152:	6d 93       	st	X+, r22
    3154:	70 83       	st	Z, r23
    3156:	62 91       	ld	r22, -Z
    3158:	ae 17       	cp	r26, r30
    315a:	bf 07       	cpc	r27, r31
    315c:	c8 f3       	brcs	.-14     	; 0x3150 <strrev+0x10>
    315e:	08 95       	ret

00003160 <_exit>:
    3160:	f8 94       	cli

00003162 <__stop_program>:
    3162:	ff cf       	rjmp	.-2      	; 0x3162 <__stop_program>
